ccopy_reg
_reconstructor
p0
(cpandas.core.frame
DataFrame
p1
c__builtin__
object
p2
Ntp3
Rp4
(dp5
S'_metadata'
p6
(lp7
sS'_typ'
p8
S'dataframe'
p9
sS'_data'
p10
g0
(cpandas.core.internals
BlockManager
p11
g2
Ntp12
Rp13
((lp14
cpandas.core.index
_new_Index
p15
(cpandas.core.index
Index
p16
(dp17
S'data'
p18
cnumpy.core.multiarray
_reconstruct
p19
(cnumpy
ndarray
p20
(I0
tp21
S'b'
p22
tp23
Rp24
(I1
(L67L
tp25
cnumpy
dtype
p26
(S'O8'
p27
I0
I1
tp28
Rp29
(I3
S'|'
p30
NNNI-1
I-1
I63
tp31
bI00
(lp32
Varchive_url
p33
aVassignees_url
p34
aVblobs_url
p35
aVbranches_url
p36
aVclone_url
p37
aVcollaborators_url
p38
aVcomments_url
p39
aVcommits_url
p40
aVcompare_url
p41
aVcontents_url
p42
aVcontributors_url
p43
aVcreated_at
p44
aVdefault_branch
p45
aVdescription
p46
aVdownloads_url
p47
aVevents_url
p48
aVfork
p49
aVforks
p50
aVforks_count
p51
aVforks_url
p52
aVfull_name
p53
aVgit_commits_url
p54
aVgit_refs_url
p55
aVgit_tags_url
p56
aVgit_url
p57
aVhas_downloads
p58
aVhas_issues
p59
aVhas_pages
p60
aVhas_wiki
p61
aVhomepage
p62
aVhooks_url
p63
aVhtml_url
p64
aVid
p65
aVissue_comment_url
p66
aVissue_events_url
p67
aVissues_url
p68
aVkeys_url
p69
aVlabels_url
p70
aVlanguage
p71
aVlanguages_url
p72
aVmerges_url
p73
aVmilestones_url
p74
aVmirror_url
p75
aVname
p76
aVnotifications_url
p77
aVopen_issues
p78
aVopen_issues_count
p79
aVowner
p80
aVprivate
p81
aVpulls_url
p82
aVpushed_at
p83
aVreleases_url
p84
aVsize
p85
aVssh_url
p86
aVstargazers_count
p87
aVstargazers_url
p88
aVstatuses_url
p89
aVsubscribers_url
p90
aVsubscription_url
p91
aVsvn_url
p92
aVtags_url
p93
aVteams_url
p94
aVtrees_url
p95
aVupdated_at
p96
aVurl
p97
aVwatchers
p98
aVwatchers_count
p99
atp100
bsS'name'
p101
Nstp102
Rp103
ag15
(cpandas.core.index
Int64Index
p104
(dp105
g18
g19
(g20
(I0
tp106
g22
tp107
Rp108
(I1
(L30L
tp109
g26
(S'i8'
p110
I0
I1
tp111
Rp112
(I3
S'<'
p113
NNNI-1
I-1
I0
tp114
bI00
S'\x00\x00\x00\x00\x00\x00\x00\x00\x01\x00\x00\x00\x00\x00\x00\x00\x02\x00\x00\x00\x00\x00\x00\x00\x03\x00\x00\x00\x00\x00\x00\x00\x04\x00\x00\x00\x00\x00\x00\x00\x05\x00\x00\x00\x00\x00\x00\x00\x06\x00\x00\x00\x00\x00\x00\x00\x07\x00\x00\x00\x00\x00\x00\x00\x08\x00\x00\x00\x00\x00\x00\x00\t\x00\x00\x00\x00\x00\x00\x00\n\x00\x00\x00\x00\x00\x00\x00\x0b\x00\x00\x00\x00\x00\x00\x00\x0c\x00\x00\x00\x00\x00\x00\x00\r\x00\x00\x00\x00\x00\x00\x00\x0e\x00\x00\x00\x00\x00\x00\x00\x0f\x00\x00\x00\x00\x00\x00\x00\x10\x00\x00\x00\x00\x00\x00\x00\x11\x00\x00\x00\x00\x00\x00\x00\x12\x00\x00\x00\x00\x00\x00\x00\x13\x00\x00\x00\x00\x00\x00\x00\x14\x00\x00\x00\x00\x00\x00\x00\x15\x00\x00\x00\x00\x00\x00\x00\x16\x00\x00\x00\x00\x00\x00\x00\x17\x00\x00\x00\x00\x00\x00\x00\x18\x00\x00\x00\x00\x00\x00\x00\x19\x00\x00\x00\x00\x00\x00\x00\x1a\x00\x00\x00\x00\x00\x00\x00\x1b\x00\x00\x00\x00\x00\x00\x00\x1c\x00\x00\x00\x00\x00\x00\x00\x1d\x00\x00\x00\x00\x00\x00\x00'
p115
tp116
bsg101
Nstp117
Rp118
a(lp119
g19
(g20
(I0
tp120
g22
tp121
Rp122
(I1
(L1L
L30L
tp123
g26
(S'f8'
p124
I0
I1
tp125
Rp126
(I3
S'<'
p127
NNNI-1
I-1
I0
tp128
bI00
S'\x00\x00\x00\x00\x00\x00\xf8\x7f\x00\x00\x00\x00\x00\x00\xf8\x7f\x00\x00\x00\x00\x00\x00\xf8\x7f\x00\x00\x00\x00\x00\x00\xf8\x7f\x00\x00\x00\x00\x00\x00\xf8\x7f\x00\x00\x00\x00\x00\x00\xf8\x7f\x00\x00\x00\x00\x00\x00\xf8\x7f\x00\x00\x00\x00\x00\x00\xf8\x7f\x00\x00\x00\x00\x00\x00\xf8\x7f\x00\x00\x00\x00\x00\x00\xf8\x7f\x00\x00\x00\x00\x00\x00\xf8\x7f\x00\x00\x00\x00\x00\x00\xf8\x7f\x00\x00\x00\x00\x00\x00\xf8\x7f\x00\x00\x00\x00\x00\x00\xf8\x7f\x00\x00\x00\x00\x00\x00\xf8\x7f\x00\x00\x00\x00\x00\x00\xf8\x7f\x00\x00\x00\x00\x00\x00\xf8\x7f\x00\x00\x00\x00\x00\x00\xf8\x7f\x00\x00\x00\x00\x00\x00\xf8\x7f\x00\x00\x00\x00\x00\x00\xf8\x7f\x00\x00\x00\x00\x00\x00\xf8\x7f\x00\x00\x00\x00\x00\x00\xf8\x7f\x00\x00\x00\x00\x00\x00\xf8\x7f\x00\x00\x00\x00\x00\x00\xf8\x7f\x00\x00\x00\x00\x00\x00\xf8\x7f\x00\x00\x00\x00\x00\x00\xf8\x7f\x00\x00\x00\x00\x00\x00\xf8\x7f\x00\x00\x00\x00\x00\x00\xf8\x7f\x00\x00\x00\x00\x00\x00\xf8\x7f\x00\x00\x00\x00\x00\x00\xf8\x7f'
p129
tp130
bag19
(g20
(I0
tp131
g22
tp132
Rp133
(I1
(L9L
L30L
tp134
g112
I00
S'\x00\x00\x00\x00\x00\x00\x00\x00\x00\x00\x00\x00\x00\x00\x00\x00\x01\x00\x00\x00\x00\x00\x00\x00\x00\x00\x00\x00\x00\x00\x00\x00\x00\x00\x00\x00\x00\x00\x00\x00\x00\x00\x00\x00\x00\x00\x00\x00\x00\x00\x00\x00\x00\x00\x00\x00\x00\x00\x00\x00\x00\x00\x00\x00\x00\x00\x00\x00\x00\x00\x00\x00\x00\x00\x00\x00\x00\x00\x00\x00\x00\x00\x00\x00\x00\x00\x00\x00\x00\x00\x00\x00\x00\x00\x00\x00\x00\x00\x00\x00\x00\x00\x00\x00\x00\x00\x00\x00\x00\x00\x00\x00\x00\x00\x00\x00\x00\x00\x00\x00\x00\x00\x00\x00\x00\x00\x00\x00\x00\x00\x00\x00\x00\x00\x00\x00\x00\x00\x00\x00\x00\x00\x00\x00\x00\x00\x00\x00\x00\x00\x00\x00\x00\x00\x00\x00\x00\x00\x00\x00\x00\x00\x00\x00\x00\x00\x00\x00\x00\x00\x00\x00\x00\x00\x00\x00\x00\x00\x00\x00\x00\x00\x00\x00\x00\x00\x00\x00\x00\x00\x00\x00\x00\x00\x00\x00\x00\x00\x00\x00\x01\x00\x00\x00\x00\x00\x00\x00\x00\x00\x00\x00\x00\x00\x00\x00\x00\x00\x00\x00\x00\x00\x00\x00\x00\x00\x00\x00\x00\x00\x00\x00\x00\x00\x00\x00\x00\x00\x00\x00\x00\x00\x00\x00\x00\x00\x00\x00\x00\x00\x00\x00\x00\x00\x00\x00\x01\x00\x00\x00\x00\x00\x00\x00\x00\x00\x00\x00\x00\x00\x00\x00\x00\x00\x00\x00\x00\x00\x00\x00\x00\x00\x00\x00\x00\x00\x00\x00\x00\x00\x00\x00\x00\x00\x00\x00\x00\x00\x00\x00\x00\x00\x00\x00\x00\x00\x00\x00\x00\x00\x00\x00\x00\x00\x00\x00\x00\x00\x00\x00\x00\x00\x00\x00\x00\x00\x00\x00\x00\x00\x00\x00\x00\x00\x00\x00\x00\x00\x00\x00\x00\x00\x00\x00\x00\x00\x00\x00\x00\x00\x00\x00\x00\x00\x00\x00\x00\x00\x00\x00\x00\x00\x00\x00\x00\x00\x00\x00\x00\x00\x00\x00\x00\x00\x00\x00\x00\x00\x00\x00\x00\x00\x00\x00\x00\x00\x00\x00\x00\x00\x00\x00\x00\x00\x00\x00\x00\x00\x00\x00\x00\x00\x00\x00\x00\x00\x00\x00\x00\x00\x00\x00\x00\x00\x00\x00\x00\x00\x00\x00\x00\x00\x00\x00\x00\x00\x00\x00\x00\x00\x00\x00\x00\x00\x00\x00\x00\x00\x00\x00\x01\x00\x00\x00\x00\x00\x00\x00\x00\x00\x00\x00\x00\x00\x00\x00\x00\x00\x00\x00\x00\x00\x00\x00\x00\x00\x00\x00\x00\x00\x00\x00\x00\x00\x00\x00\x00\x00\x00\x00\xe2%]\x00\x00\x00\x00\x00\x126\xc8\x00\x00\x00\x00\x00\x85\xa8\xa4\x00\x00\x00\x00\x00`\xe1\xcf\x00\x00\x00\x00\x00\xf2A\x94\x00\x00\x00\x00\x00\xc9\x95\xc2\x00\x00\x00\x00\x00c\xefV\x00\x00\x00\x00\x00\x15Yj\x00\x00\x00\x00\x00\xe5\xbc\x90\x00\x00\x00\x00\x00(\xd2\xc2\x00\x00\x00\x00\x00\xfb\xad\xe5\x01\x00\x00\x00\x00F\xce\x8c\x00\x00\x00\x00\x008$;\x02\x00\x00\x00\x00q\xe2\x8b\x00\x00\x00\x00\x00\x19\x87\x19\x01\x00\x00\x00\x00\x13eO\x00\x00\x00\x00\x00\xe9\x04\x9a\x00\x00\x00\x00\x00H\x17\xc5\x00\x00\x00\x00\x00Z\xa2\xa3\x02\x00\x00\x00\x00\xb3\xdb\x9f\x00\x00\x00\x00\x003JT\x00\x00\x00\x00\x00\xe4\xee\xa4\x00\x00\x00\x00\x00\xbe78\x00\x00\x00\x00\x00ZA\xfe\x00\x00\x00\x00\x00\xbb/O\x00\x00\x00\x00\x00\x18\xce\xf7\x00\x00\x00\x00\x00\xb0\x87\xc8\x00\x00\x00\x00\x00\xe0\x971\x01\x00\x00\x00\x00\xb7\xb2K\x02\x00\x00\x00\x00!\xd8\x98\x02\x00\x00\x00\x00\x00\x00\x00\x00\x00\x00\x00\x00\x00\x00\x00\x00\x00\x00\x00\x00\x00\x00\x00\x00\x00\x00\x00\x00\x00\x00\x00\x00\x00\x00\x00\x00\x00\x00\x00\x00\x00\x00\x00\x00\x00\x00\x00\x00\x00\x00\x00\x00\x00\x00\x00\x00\x00\x00\x00\x00\x00\x00\x00\x00\x00\x00\x00\x00\x00\x00\x00\x00\x00\x00\x00\x00\x00\x00\x00\x00\x00\x00\x00\x00\x00\x00\x00\x00\x00\x00\x00\x00\x00\x00\x00\x00\x00\x00\x00\x00\x00\x00\x00\x00\x00\x00\x00\x00\x00\x00\x00\x00\x00\x00\x00\x00\x00\x00\x00\x00\x00\x00\x00\x00\x00\x00\x00\x00\x00\x00\x00\x00\x00\x00\x00\x00\x00\x00\x00\x00\x00\x00\x00\x00\x00\x00\x00\x00\x00\x00\x00\x00\x00\x00\x00\x00\x00\x00\x00\x00\x00\x00\x00\x00\x00\x00\x00\x00\x00\x00\x00\x00\x00\x00\x00\x00\x00\x00\x00\x00\x00\x00\x00\x00\x00\x00\x00\x00\x00\x00\x00\x00\x00\x00\x00\x00\x00\x00\x00\x00\x00\x00\x00\x00\x00\x00\x00\x00\x00\x00\x00\x00\x00\x00\x00\x00\x00\x00\x00\x00\x00\x00\x00\x00\x00\x00\x00\x00\x00\x00\x00\x00\x00\x00\x00\x00\x00\x00\x00\x00\x00\x00\x00\x00\x00\x00\x00\x00\x00\x00\x00\x00\x00\x00\x00\x00\x00\x00\x00\x00\x00\x00\x00\x00\x00\x00\x00\x00\x00\x00\x00\x00\x00\x00\x00\x00\x00\x00\x00\x00\x00\x00\x00\x00\x00\x00\x00\x00\x00\x00\x00\x00\x00\x00\x00\x00\x00\x00\x00\x00\x00\x00\x00\x00\x00\x00\x00\x00\x00\x00\x00\x00\x00\x00\x00\x00\x00\x00\x00\x00\x00\x00\x00\x00\x00\x00\x00\x00\x00\x00\x00\x00\x00\x00\x00\x00\x00\x00\x00\x00\x00\x00\x00\x00\x00\x00\x00\x00\x00\x00\x00\x00\x00\x00\x00\x00\x00\x00\x00\x00\x00\x00\x00\x00\x00\x00\x00\x00\x00\x00\x00\x00\x00\x00\x00\x00\x00\x00\x00\x00\x00\x00\x00\x00\x00\x00\x00\x00\x00\x00\x00\x00\x00\x00\x00\x00\x00\x00\x00\x00\x00\x00\x00\x00\x00\x00\x00\x00\x00\x00\x00\x00\x00\x00\x00\x00\x00\x00\x00\x00\x00\x00\x00\x00\x00\x00\x00\x00\x00\x00\x00\x00\x00\x00\x00\x00\x00\x00\x00\x00\x00\x00\x00\x00\x00\x00\x00\x00\x00\x00\x00\x00\x00\x00\x00\x00\x00\x00\x00\x00\x00\x00\x00\x00\x00\x00\x00\x00\x00\x00\x00\x00\x00\x00\x00\x00\x00\x00\x00\x00\x00\x00\x00\x000\x00\x00\x00\x00\x00\x00\x00XR\x00\x00\x00\x00\x00\x00\xc5\x06\x00\x00\x00\x00\x00\x00<\x00\x00\x00\x00\x00\x00\x00\xd7<\x04\x00\x00\x00\x00\x00I\x00\x00\x00\x00\x00\x00\x00\x8b\x00\x00\x00\x00\x00\x00\x00\xf5\x10\x00\x00\x00\x00\x00\x00D\x00\x00\x00\x00\x00\x00\x00@\x00\x00\x00\x00\x00\x00\x00f\x00\x00\x00\x00\x00\x00\x00\xdf\x00\x00\x00\x00\x00\x00\x00P\x02\x00\x00\x00\x00\x00\x00g\x01\x00\x00\x00\x00\x00\x00x\x03\x00\x00\x00\x00\x00\x00g\x00\x00\x00\x00\x00\x00\x00T\x0e\x00\x00\x00\x00\x00\x00:\x03\x00\x00\x00\x00\x00\x00\x01\x01\x00\x00\x00\x00\x00\x00g\x00\x00\x00\x00\x00\x00\x000\x00\x00\x00\x00\x00\x00\x00O1\x00\x00\x00\x00\x00\x00\x9b\x01\x00\x00\x00\x00\x00\x00\xc4\x0e\x00\x00\x00\x00\x00\x00^\x00\x00\x00\x00\x00\x00\x00T\x01\x00\x00\x00\x00\x00\x00q\x00\x00\x00\x00\x00\x00\x00b\x07\x00\x00\x00\x00\x00\x00x\x0b\x00\x00\x00\x00\x00\x00\x00\x00\x00\x00\x00\x00\x00\x00\x00\x00\x00\x00\x00\x00\x00\x00\x00\x00\x00\x00\x00\x00\x00\x00\x00\x00\x00\x00\x00\x00\x00\x00\x00\x00\x00\x00\x00\x00\x00\x00\x00\x00\x00\x00\x00\x00\x00\x00\x00\x00\x00\x00\x00\x00\x00\x00\x00\x00\x00\x00\x00\x00\x00\x00\x02\x00\x00\x00\x00\x00\x00\x00\x00\x00\x00\x00\x00\x00\x00\x00\x00\x00\x00\x00\x00\x00\x00\x00\x00\x00\x00\x00\x00\x00\x00\x00\x00\x00\x00\x00\x00\x00\x00\x00\x00\x00\x00\x00\x00\x00\x00\x00\x00\x00\x00\x00\x00\x00\x00\x00\x00\x00\x00\x00\x00\x00\x00\x00\x02\x00\x00\x00\x00\x00\x00\x00\x00\x00\x00\x00\x00\x00\x00\x00\x00\x00\x00\x00\x00\x00\x00\x00\x00\x00\x00\x00\x00\x00\x00\x00\x00\x00\x00\x00\x00\x00\x00\x00\x00\x00\x00\x00\x00\x00\x00\x00\x00\x00\x00\x00\x00\x00\x00\x00\x02\x00\x00\x00\x00\x00\x00\x00\x00\x00\x00\x00\x00\x00\x00\x00\x02\x00\x00\x00\x00\x00\x00\x00\x00\x00\x00\x00\x00\x00\x00\x00\x00\x00\x00\x00\x00\x00\x00\x00\x00\x00\x00\x00\x00\x00\x00\x00\x00\x00\x00\x00\x00\x00\x00\x00\x00\x00\x00\x00\x00\x00\x00\x00\x00\x00\x00\x00\x00\x00\x00\x00\x00\x00\x00\x00\x00\x00\x00\x00\x00\x00\x00\x00\x00\x00\x00\x00\x00\x00\x00\x00\x00\x00\x00\x00\x00\x00\x00\x00\x00\x00\x00\x00\x00\x00\x00\x00\x00\x00\x00\x00\x00\x00\x00\x00\x00\x00\x00\x00\x02\x00\x00\x00\x00\x00\x00\x00\x00\x00\x00\x00\x00\x00\x00\x00\x00\x00\x00\x00\x00\x00\x00\x00\x00\x00\x00\x00\x00\x00\x00\x00\x00\x00\x00\x00\x00\x00\x00\x00\x00\x00\x00\x00\x00\x00\x00\x00\x00\x00\x00\x00\x00\x00\x00\x00\x00\x00\x00\x00\x00\x00\x00\x00\x02\x00\x00\x00\x00\x00\x00\x00\x00\x00\x00\x00\x00\x00\x00\x00\x00\x00\x00\x00\x00\x00\x00\x00\x00\x00\x00\x00\x00\x00\x00\x00\x00\x00\x00\x00\x00\x00\x00\x00\x00\x00\x00\x00\x00\x00\x00\x00\x00\x00\x00\x00\x00\x00\x00\x00\x02\x00\x00\x00\x00\x00\x00\x00\x00\x00\x00\x00\x00\x00\x00\x00\x02\x00\x00\x00\x00\x00\x00\x00\x00\x00\x00\x00\x00\x00\x00\x00\x00\x00\x00\x00\x00\x00\x00\x00\x00\x00\x00\x00\x00\x00\x00\x00\x00\x00\x00\x00\x00\x00\x00\x00\x00\x00\x00\x00\x00\x00\x00\x00\x00\x00\x00\x00\x00\x00\x00\x00\x00\x00\x00\x00\x00\x00\x00\x00\x00\x00\x00\x00\x00\x00\x00\x00\x00\x00\x00\x00\x00\x00\x00\x00\x00\x00\x00\x00\x00\x00\x00\x00\x00\x00\x00\x00\x00\x00\x00\x00\x00\x00\x00\x00\x00\x00\x00\x00\x02\x00\x00\x00\x00\x00\x00\x00\x00\x00\x00\x00\x00\x00\x00\x00\x00\x00\x00\x00\x00\x00\x00\x00\x00\x00\x00\x00\x00\x00\x00\x00\x00\x00\x00\x00\x00\x00\x00\x00\x00\x00\x00\x00\x00\x00\x00\x00\x00\x00\x00\x00\x00\x00\x00\x00\x00\x00\x00\x00\x00\x00\x00\x00\x02\x00\x00\x00\x00\x00\x00\x00\x00\x00\x00\x00\x00\x00\x00\x00\x00\x00\x00\x00\x00\x00\x00\x00\x00\x00\x00\x00\x00\x00\x00\x00\x00\x00\x00\x00\x00\x00\x00\x00\x00\x00\x00\x00\x00\x00\x00\x00\x00\x00\x00\x00\x00\x00\x00\x00\x02\x00\x00\x00\x00\x00\x00\x00\x00\x00\x00\x00\x00\x00\x00\x00\x02\x00\x00\x00\x00\x00\x00\x00\x00\x00\x00\x00\x00\x00\x00\x00\x00\x00\x00\x00\x00\x00\x00\x00\x00\x00\x00\x00\x00\x00\x00\x00\x00\x00\x00\x00\x00\x00\x00\x00\x00\x00\x00\x00\x00\x00\x00\x00'
p135
tp136
bag19
(g20
(I0
tp137
g22
tp138
Rp139
(I1
(L3L
L30L
tp140
g26
(S'M8'
p141
I0
I1
tp142
Rp143
(I4
S'<'
p144
NNNI-1
I-1
I0
((dp145
(S'ns'
p146
I1
I1
I1
tp147
tp148
tp149
bI00
S'\x00~[\x89\xce\x88\xba\x12\x00\xb4\x9e\xb3\x93q\'\x13\x00\xd0-\x99\x0b\x0f\t\x13\x00rTH\xfa\xa1-\x13\x00\x12\x10RC\xd3\xf8\x12\x00\x9a\xf5\xea!\xce"\x13\x00j\x14W,+\xb1\x12\x00\xc81\x0c\x1c\t\xcc\x12\x00\xb2!\xcd\xed\x90\xf5\x12\x00\xccP\xe7\xd0\xf4"\x13\x00\xe4 \xbe\x1cW\xc9\x13\x00`-\x8aa\xd7\xf1\x12\x00&A\x1d"\xb8\xe7\x13\x00\\\xfe%\xfb\x16\xf1\x12\x00\xd4\xa8\x11\xb6\xdca\x13\x00\xe4\xde\x07\x0c\xa9\xa4\x12\x00\xda\x9a\x16\x8c\x86\xfe\x12\x00x\xbf\xf4\x80\xed$\x13\x00\xbe\xaf3\xf3+\r\x14\x00\x9c\x182oo\x04\x13\x00@\xa9\xe5\xaa\xf3\xac\x12\x00\x0c\x03\x80c7\t\x13\x00|to\xb64z\x12\x00\x9e\xe6 +%Q\x13\x004\x84\xca\xb8S\xa4\x12\x00xe\x18Z\xb4L\x13\x00v\xf2\x8b\xa4\xa9\'\x13\x00\xb8\x92o\x01>p\x13\x00\x02\xe4\x80Q\x96\xed\x13\x00\xd8\xd5OCt\t\x14\x00~[\x89\xce\x88\xba\x12\x00\x10\xe3}\xfc\xa80\x13\x00&\x9239`l\x13\x00\xeew\xe4\r\xe6,\x12\x00\x9a\xd4E`\x8a\xf8\x12\x00\xd6_$\xd5\xb8\x8c\x12\x00J\xedG\x9e\xde\xaf\x12\x00p\xce\x80\xbd7L\x13\x00@R.!9\xe6\x12\x00\xca\x1b\xb2\xbc\xbf\xfb\x12\x00\xd6E\xd3\r]\xc9\x13\x00\xd6p\xa7\xd0\x0b\xeb\x12\x00P\xbb\xa9\\\xda\xe1\x13\x00\xf4US6\xc4\x0e\x13\x00\xce\xa6Xn[_\x13\x00\x90\x85\xfba\xa1Q\x12\x00\xe2!/k\xdd\\\x13\x00\xaeC\xdbq\xd3\x1f\x14\x00\xb6\xcev\x9f\x8e\r\x14\x00\xa6\x8dJ\x94\xa7\xd8\x12\x00\nD!\xab\xf3\xac\x12\x00~\xc2\x94\xdb\xa1\x08\x13\x00\xfep\xd7\x0cL\xf4\x11\x00|?\xd7V\xed)\x13\x00\xf4\xe35_\x93y\x12\x00\xb0i\xef\xb6*R\x13\x00\x98\xabF\xf0\x9c\x16\x13\x00d2\xe9_\xfco\x13\x00\x04\x86\xd2\xf2\x08\xcb\x13\x00\xa2p\x8bCt\t\x14\x004\x8do\xf5\x93\xd8\x12\x00\xda}\xb9\xfc\xa80\x13\x00T\xa0\xf8R~\x19\x14\x00rTH\xfa\xa1-\x13\x00\x12\x10RC\xd3\xf8\x12\x00.+b"\xce"\x13\x00\xea\x0b\x06\xe8q\xd8\x12\x00:i\xbc\xbd7L\x13\x00\xb2!\xcd\xed\x90\xf5\x12\x00\xccP\xe7\xd0\xf4"\x13\x00B\xf1p\x1dW\xc9\x13\x00\x10\xe4\xae\x84i\x0f\x14\x00\xf0\xdbX"\xb8\xe7\x13\x00R&\x067\xc4\x0e\x13\x00\xb0\xc5\xbd\xc6a\xa9\x13\x00\xd2\xd0\xd7\xad<\xd8\x12\x00.Y\x9a\xf4\xf6\\\x13\x00\x0c\xb1&\x80r\x15\x14\x00\xf0Y\x92\xceG\r\x14\x00\x9c\x182oo\x04\x13\x00\xf6\xda*\x16b\xd8\x12\x00\x0c\x03\x80c7\t\x13\x002\xdc+\xb0:\xd7\x12\x00\xe4i[;\r\xb9\x13\x00h\x03\xa7\x08;\xd8\x12\x00h\x1cG\r1y\x13\x00@\x8d\xc7\xa4\xa9\'\x13\x00L\xc8\xe6\x01>p\x13\x00\xa4\xd8\xf5\xb1\xfd\xec\x13\x00\xd8\xd5OCt\t\x14'
p150
tp151
bag19
(g20
(I0
tp152
g22
tp153
Rp154
(I1
(L6L
L30L
tp155
g26
(S'b1'
p156
I0
I1
tp157
Rp158
(I3
S'|'
p159
NNNI-1
I-1
I0
tp160
bI00
S'\x00\x01\x01\x01\x01\x01\x01\x01\x01\x01\x01\x01\x01\x01\x01\x01\x01\x01\x01\x01\x00\x01\x01\x01\x01\x01\x01\x01\x01\x00\x01\x01\x01\x01\x01\x01\x01\x01\x01\x01\x01\x01\x01\x01\x01\x01\x01\x01\x01\x01\x01\x01\x01\x01\x01\x01\x01\x01\x01\x01\x01\x00\x00\x00\x00\x00\x00\x00\x00\x00\x00\x00\x00\x00\x00\x00\x00\x00\x00\x00\x01\x00\x00\x00\x00\x00\x00\x00\x00\x01\x00\x01\x01\x00\x00\x00\x00\x01\x00\x00\x00\x00\x00\x00\x00\x00\x01\x00\x00\x00\x00\x01\x00\x00\x00\x00\x00\x01\x01\x00\x01\x01\x01\x01\x00\x01\x01\x01\x01\x01\x01\x01\x01\x01\x01\x01\x00\x01\x00\x01\x01\x01\x01\x00\x01\x01\x01\x01\x01\x01\x00\x00\x00\x00\x00\x00\x00\x00\x00\x00\x00\x00\x00\x00\x00\x00\x00\x00\x00\x00\x00\x00\x00\x00\x00\x00\x00\x00\x00\x00'
p161
tp162
bag19
(g20
(I0
tp163
g22
tp164
Rp165
(I1
(L48L
L30L
tp166
g29
I00
(lp167
Vhttps://api.github.com/repos/mralexgray/-REPONAME/{archive_format}{/ref}
p168
aVhttps://api.github.com/repos/mralexgray/ace/{archive_format}{/ref}
p169
aVhttps://api.github.com/repos/mralexgray/ACEView/{archive_format}{/ref}
p170
aVhttps://api.github.com/repos/mralexgray/ActiveLog/{archive_format}{/ref}
p171
aVhttps://api.github.com/repos/mralexgray/adium/{archive_format}{/ref}
p172
aVhttps://api.github.com/repos/mralexgray/ADLivelyTableView/{archive_format}{/ref}
p173
aVhttps://api.github.com/repos/mralexgray/AFIncrementalStore/{archive_format}{/ref}
p174
aVhttps://api.github.com/repos/mralexgray/AFNetworking/{archive_format}{/ref}
p175
aVhttps://api.github.com/repos/mralexgray/AGNSSplitView/{archive_format}{/ref}
p176
aVhttps://api.github.com/repos/mralexgray/AGScopeBar/{archive_format}{/ref}
p177
aVhttps://api.github.com/repos/mralexgray/agvtool-xcode-plugin/{archive_format}{/ref}
p178
aVhttps://api.github.com/repos/mralexgray/AHContentBrowser/{archive_format}{/ref}
p179
aVhttps://api.github.com/repos/mralexgray/AHLaunchCtl/{archive_format}{/ref}
p180
aVhttps://api.github.com/repos/mralexgray/AHLayout/{archive_format}{/ref}
p181
aVhttps://api.github.com/repos/mralexgray/Airmail-Plug-In-Framework/{archive_format}{/ref}
p182
aVhttps://api.github.com/repos/mralexgray/AJS-iTunes-API/{archive_format}{/ref}
p183
aVhttps://api.github.com/repos/mralexgray/Alcatraz/{archive_format}{/ref}
p184
aVhttps://api.github.com/repos/mralexgray/alcatraz-packages/{archive_format}{/ref}
p185
aVhttps://api.github.com/repos/mralexgray/alexicons/{archive_format}{/ref}
p186
aVhttps://api.github.com/repos/mralexgray/Alfred-Google-Translate/{archive_format}{/ref}
p187
aVhttps://api.github.com/repos/mralexgray/Amber/{archive_format}{/ref}
p188
aVhttps://api.github.com/repos/mralexgray/Amethyst/{archive_format}{/ref}
p189
aVhttps://api.github.com/repos/mralexgray/Animated-Paths/{archive_format}{/ref}
p190
aVhttps://api.github.com/repos/mralexgray/AnsiLove.framework/{archive_format}{/ref}
p191
aVhttps://api.github.com/repos/mralexgray/ANTrackBar/{archive_format}{/ref}
p192
aVhttps://api.github.com/repos/mralexgray/AOP-in-Objective-C/{archive_format}{/ref}
p193
aVhttps://api.github.com/repos/mralexgray/Apaxy/{archive_format}{/ref}
p194
aVhttps://api.github.com/repos/mralexgray/app/{archive_format}{/ref}
p195
aVhttps://api.github.com/repos/mralexgray/appicns/{archive_format}{/ref}
p196
aVhttps://api.github.com/repos/mralexgray/appify/{archive_format}{/ref}
p197
aVhttps://api.github.com/repos/mralexgray/-REPONAME/assignees{/user}
p198
aVhttps://api.github.com/repos/mralexgray/ace/assignees{/user}
p199
aVhttps://api.github.com/repos/mralexgray/ACEView/assignees{/user}
p200
aVhttps://api.github.com/repos/mralexgray/ActiveLog/assignees{/user}
p201
aVhttps://api.github.com/repos/mralexgray/adium/assignees{/user}
p202
aVhttps://api.github.com/repos/mralexgray/ADLivelyTableView/assignees{/user}
p203
aVhttps://api.github.com/repos/mralexgray/AFIncrementalStore/assignees{/user}
p204
aVhttps://api.github.com/repos/mralexgray/AFNetworking/assignees{/user}
p205
aVhttps://api.github.com/repos/mralexgray/AGNSSplitView/assignees{/user}
p206
aVhttps://api.github.com/repos/mralexgray/AGScopeBar/assignees{/user}
p207
aVhttps://api.github.com/repos/mralexgray/agvtool-xcode-plugin/assignees{/user}
p208
aVhttps://api.github.com/repos/mralexgray/AHContentBrowser/assignees{/user}
p209
aVhttps://api.github.com/repos/mralexgray/AHLaunchCtl/assignees{/user}
p210
aVhttps://api.github.com/repos/mralexgray/AHLayout/assignees{/user}
p211
aVhttps://api.github.com/repos/mralexgray/Airmail-Plug-In-Framework/assignees{/user}
p212
aVhttps://api.github.com/repos/mralexgray/AJS-iTunes-API/assignees{/user}
p213
aVhttps://api.github.com/repos/mralexgray/Alcatraz/assignees{/user}
p214
aVhttps://api.github.com/repos/mralexgray/alcatraz-packages/assignees{/user}
p215
aVhttps://api.github.com/repos/mralexgray/alexicons/assignees{/user}
p216
aVhttps://api.github.com/repos/mralexgray/Alfred-Google-Translate/assignees{/user}
p217
aVhttps://api.github.com/repos/mralexgray/Amber/assignees{/user}
p218
aVhttps://api.github.com/repos/mralexgray/Amethyst/assignees{/user}
p219
aVhttps://api.github.com/repos/mralexgray/Animated-Paths/assignees{/user}
p220
aVhttps://api.github.com/repos/mralexgray/AnsiLove.framework/assignees{/user}
p221
aVhttps://api.github.com/repos/mralexgray/ANTrackBar/assignees{/user}
p222
aVhttps://api.github.com/repos/mralexgray/AOP-in-Objective-C/assignees{/user}
p223
aVhttps://api.github.com/repos/mralexgray/Apaxy/assignees{/user}
p224
aVhttps://api.github.com/repos/mralexgray/app/assignees{/user}
p225
aVhttps://api.github.com/repos/mralexgray/appicns/assignees{/user}
p226
aVhttps://api.github.com/repos/mralexgray/appify/assignees{/user}
p227
aVhttps://api.github.com/repos/mralexgray/-REPONAME/git/blobs{/sha}
p228
aVhttps://api.github.com/repos/mralexgray/ace/git/blobs{/sha}
p229
aVhttps://api.github.com/repos/mralexgray/ACEView/git/blobs{/sha}
p230
aVhttps://api.github.com/repos/mralexgray/ActiveLog/git/blobs{/sha}
p231
aVhttps://api.github.com/repos/mralexgray/adium/git/blobs{/sha}
p232
aVhttps://api.github.com/repos/mralexgray/ADLivelyTableView/git/blobs{/sha}
p233
aVhttps://api.github.com/repos/mralexgray/AFIncrementalStore/git/blobs{/sha}
p234
aVhttps://api.github.com/repos/mralexgray/AFNetworking/git/blobs{/sha}
p235
aVhttps://api.github.com/repos/mralexgray/AGNSSplitView/git/blobs{/sha}
p236
aVhttps://api.github.com/repos/mralexgray/AGScopeBar/git/blobs{/sha}
p237
aVhttps://api.github.com/repos/mralexgray/agvtool-xcode-plugin/git/blobs{/sha}
p238
aVhttps://api.github.com/repos/mralexgray/AHContentBrowser/git/blobs{/sha}
p239
aVhttps://api.github.com/repos/mralexgray/AHLaunchCtl/git/blobs{/sha}
p240
aVhttps://api.github.com/repos/mralexgray/AHLayout/git/blobs{/sha}
p241
aVhttps://api.github.com/repos/mralexgray/Airmail-Plug-In-Framework/git/blobs{/sha}
p242
aVhttps://api.github.com/repos/mralexgray/AJS-iTunes-API/git/blobs{/sha}
p243
aVhttps://api.github.com/repos/mralexgray/Alcatraz/git/blobs{/sha}
p244
aVhttps://api.github.com/repos/mralexgray/alcatraz-packages/git/blobs{/sha}
p245
aVhttps://api.github.com/repos/mralexgray/alexicons/git/blobs{/sha}
p246
aVhttps://api.github.com/repos/mralexgray/Alfred-Google-Translate/git/blobs{/sha}
p247
aVhttps://api.github.com/repos/mralexgray/Amber/git/blobs{/sha}
p248
aVhttps://api.github.com/repos/mralexgray/Amethyst/git/blobs{/sha}
p249
aVhttps://api.github.com/repos/mralexgray/Animated-Paths/git/blobs{/sha}
p250
aVhttps://api.github.com/repos/mralexgray/AnsiLove.framework/git/blobs{/sha}
p251
aVhttps://api.github.com/repos/mralexgray/ANTrackBar/git/blobs{/sha}
p252
aVhttps://api.github.com/repos/mralexgray/AOP-in-Objective-C/git/blobs{/sha}
p253
aVhttps://api.github.com/repos/mralexgray/Apaxy/git/blobs{/sha}
p254
aVhttps://api.github.com/repos/mralexgray/app/git/blobs{/sha}
p255
aVhttps://api.github.com/repos/mralexgray/appicns/git/blobs{/sha}
p256
aVhttps://api.github.com/repos/mralexgray/appify/git/blobs{/sha}
p257
aVhttps://api.github.com/repos/mralexgray/-REPONAME/branches{/branch}
p258
aVhttps://api.github.com/repos/mralexgray/ace/branches{/branch}
p259
aVhttps://api.github.com/repos/mralexgray/ACEView/branches{/branch}
p260
aVhttps://api.github.com/repos/mralexgray/ActiveLog/branches{/branch}
p261
aVhttps://api.github.com/repos/mralexgray/adium/branches{/branch}
p262
aVhttps://api.github.com/repos/mralexgray/ADLivelyTableView/branches{/branch}
p263
aVhttps://api.github.com/repos/mralexgray/AFIncrementalStore/branches{/branch}
p264
aVhttps://api.github.com/repos/mralexgray/AFNetworking/branches{/branch}
p265
aVhttps://api.github.com/repos/mralexgray/AGNSSplitView/branches{/branch}
p266
aVhttps://api.github.com/repos/mralexgray/AGScopeBar/branches{/branch}
p267
aVhttps://api.github.com/repos/mralexgray/agvtool-xcode-plugin/branches{/branch}
p268
aVhttps://api.github.com/repos/mralexgray/AHContentBrowser/branches{/branch}
p269
aVhttps://api.github.com/repos/mralexgray/AHLaunchCtl/branches{/branch}
p270
aVhttps://api.github.com/repos/mralexgray/AHLayout/branches{/branch}
p271
aVhttps://api.github.com/repos/mralexgray/Airmail-Plug-In-Framework/branches{/branch}
p272
aVhttps://api.github.com/repos/mralexgray/AJS-iTunes-API/branches{/branch}
p273
aVhttps://api.github.com/repos/mralexgray/Alcatraz/branches{/branch}
p274
aVhttps://api.github.com/repos/mralexgray/alcatraz-packages/branches{/branch}
p275
aVhttps://api.github.com/repos/mralexgray/alexicons/branches{/branch}
p276
aVhttps://api.github.com/repos/mralexgray/Alfred-Google-Translate/branches{/branch}
p277
aVhttps://api.github.com/repos/mralexgray/Amber/branches{/branch}
p278
aVhttps://api.github.com/repos/mralexgray/Amethyst/branches{/branch}
p279
aVhttps://api.github.com/repos/mralexgray/Animated-Paths/branches{/branch}
p280
aVhttps://api.github.com/repos/mralexgray/AnsiLove.framework/branches{/branch}
p281
aVhttps://api.github.com/repos/mralexgray/ANTrackBar/branches{/branch}
p282
aVhttps://api.github.com/repos/mralexgray/AOP-in-Objective-C/branches{/branch}
p283
aVhttps://api.github.com/repos/mralexgray/Apaxy/branches{/branch}
p284
aVhttps://api.github.com/repos/mralexgray/app/branches{/branch}
p285
aVhttps://api.github.com/repos/mralexgray/appicns/branches{/branch}
p286
aVhttps://api.github.com/repos/mralexgray/appify/branches{/branch}
p287
aVhttps://github.com/mralexgray/-REPONAME.git
p288
aVhttps://github.com/mralexgray/ace.git
p289
aVhttps://github.com/mralexgray/ACEView.git
p290
aVhttps://github.com/mralexgray/ActiveLog.git
p291
aVhttps://github.com/mralexgray/adium.git
p292
aVhttps://github.com/mralexgray/ADLivelyTableView.git
p293
aVhttps://github.com/mralexgray/AFIncrementalStore.git
p294
aVhttps://github.com/mralexgray/AFNetworking.git
p295
aVhttps://github.com/mralexgray/AGNSSplitView.git
p296
aVhttps://github.com/mralexgray/AGScopeBar.git
p297
aVhttps://github.com/mralexgray/agvtool-xcode-plugin.git
p298
aVhttps://github.com/mralexgray/AHContentBrowser.git
p299
aVhttps://github.com/mralexgray/AHLaunchCtl.git
p300
aVhttps://github.com/mralexgray/AHLayout.git
p301
aVhttps://github.com/mralexgray/Airmail-Plug-In-Framework.git
p302
aVhttps://github.com/mralexgray/AJS-iTunes-API.git
p303
aVhttps://github.com/mralexgray/Alcatraz.git
p304
aVhttps://github.com/mralexgray/alcatraz-packages.git
p305
aVhttps://github.com/mralexgray/alexicons.git
p306
aVhttps://github.com/mralexgray/Alfred-Google-Translate.git
p307
aVhttps://github.com/mralexgray/Amber.git
p308
aVhttps://github.com/mralexgray/Amethyst.git
p309
aVhttps://github.com/mralexgray/Animated-Paths.git
p310
aVhttps://github.com/mralexgray/AnsiLove.framework.git
p311
aVhttps://github.com/mralexgray/ANTrackBar.git
p312
aVhttps://github.com/mralexgray/AOP-in-Objective-C.git
p313
aVhttps://github.com/mralexgray/Apaxy.git
p314
aVhttps://github.com/mralexgray/app.git
p315
aVhttps://github.com/mralexgray/appicns.git
p316
aVhttps://github.com/mralexgray/appify.git
p317
aVhttps://api.github.com/repos/mralexgray/-REPONAME/collaborators{/collaborator}
p318
aVhttps://api.github.com/repos/mralexgray/ace/collaborators{/collaborator}
p319
aVhttps://api.github.com/repos/mralexgray/ACEView/collaborators{/collaborator}
p320
aVhttps://api.github.com/repos/mralexgray/ActiveLog/collaborators{/collaborator}
p321
aVhttps://api.github.com/repos/mralexgray/adium/collaborators{/collaborator}
p322
aVhttps://api.github.com/repos/mralexgray/ADLivelyTableView/collaborators{/collaborator}
p323
aVhttps://api.github.com/repos/mralexgray/AFIncrementalStore/collaborators{/collaborator}
p324
aVhttps://api.github.com/repos/mralexgray/AFNetworking/collaborators{/collaborator}
p325
aVhttps://api.github.com/repos/mralexgray/AGNSSplitView/collaborators{/collaborator}
p326
aVhttps://api.github.com/repos/mralexgray/AGScopeBar/collaborators{/collaborator}
p327
aVhttps://api.github.com/repos/mralexgray/agvtool-xcode-plugin/collaborators{/collaborator}
p328
aVhttps://api.github.com/repos/mralexgray/AHContentBrowser/collaborators{/collaborator}
p329
aVhttps://api.github.com/repos/mralexgray/AHLaunchCtl/collaborators{/collaborator}
p330
aVhttps://api.github.com/repos/mralexgray/AHLayout/collaborators{/collaborator}
p331
aVhttps://api.github.com/repos/mralexgray/Airmail-Plug-In-Framework/collaborators{/collaborator}
p332
aVhttps://api.github.com/repos/mralexgray/AJS-iTunes-API/collaborators{/collaborator}
p333
aVhttps://api.github.com/repos/mralexgray/Alcatraz/collaborators{/collaborator}
p334
aVhttps://api.github.com/repos/mralexgray/alcatraz-packages/collaborators{/collaborator}
p335
aVhttps://api.github.com/repos/mralexgray/alexicons/collaborators{/collaborator}
p336
aVhttps://api.github.com/repos/mralexgray/Alfred-Google-Translate/collaborators{/collaborator}
p337
aVhttps://api.github.com/repos/mralexgray/Amber/collaborators{/collaborator}
p338
aVhttps://api.github.com/repos/mralexgray/Amethyst/collaborators{/collaborator}
p339
aVhttps://api.github.com/repos/mralexgray/Animated-Paths/collaborators{/collaborator}
p340
aVhttps://api.github.com/repos/mralexgray/AnsiLove.framework/collaborators{/collaborator}
p341
aVhttps://api.github.com/repos/mralexgray/ANTrackBar/collaborators{/collaborator}
p342
aVhttps://api.github.com/repos/mralexgray/AOP-in-Objective-C/collaborators{/collaborator}
p343
aVhttps://api.github.com/repos/mralexgray/Apaxy/collaborators{/collaborator}
p344
aVhttps://api.github.com/repos/mralexgray/app/collaborators{/collaborator}
p345
aVhttps://api.github.com/repos/mralexgray/appicns/collaborators{/collaborator}
p346
aVhttps://api.github.com/repos/mralexgray/appify/collaborators{/collaborator}
p347
aVhttps://api.github.com/repos/mralexgray/-REPONAME/comments{/number}
p348
aVhttps://api.github.com/repos/mralexgray/ace/comments{/number}
p349
aVhttps://api.github.com/repos/mralexgray/ACEView/comments{/number}
p350
aVhttps://api.github.com/repos/mralexgray/ActiveLog/comments{/number}
p351
aVhttps://api.github.com/repos/mralexgray/adium/comments{/number}
p352
aVhttps://api.github.com/repos/mralexgray/ADLivelyTableView/comments{/number}
p353
aVhttps://api.github.com/repos/mralexgray/AFIncrementalStore/comments{/number}
p354
aVhttps://api.github.com/repos/mralexgray/AFNetworking/comments{/number}
p355
aVhttps://api.github.com/repos/mralexgray/AGNSSplitView/comments{/number}
p356
aVhttps://api.github.com/repos/mralexgray/AGScopeBar/comments{/number}
p357
aVhttps://api.github.com/repos/mralexgray/agvtool-xcode-plugin/comments{/number}
p358
aVhttps://api.github.com/repos/mralexgray/AHContentBrowser/comments{/number}
p359
aVhttps://api.github.com/repos/mralexgray/AHLaunchCtl/comments{/number}
p360
aVhttps://api.github.com/repos/mralexgray/AHLayout/comments{/number}
p361
aVhttps://api.github.com/repos/mralexgray/Airmail-Plug-In-Framework/comments{/number}
p362
aVhttps://api.github.com/repos/mralexgray/AJS-iTunes-API/comments{/number}
p363
aVhttps://api.github.com/repos/mralexgray/Alcatraz/comments{/number}
p364
aVhttps://api.github.com/repos/mralexgray/alcatraz-packages/comments{/number}
p365
aVhttps://api.github.com/repos/mralexgray/alexicons/comments{/number}
p366
aVhttps://api.github.com/repos/mralexgray/Alfred-Google-Translate/comments{/number}
p367
aVhttps://api.github.com/repos/mralexgray/Amber/comments{/number}
p368
aVhttps://api.github.com/repos/mralexgray/Amethyst/comments{/number}
p369
aVhttps://api.github.com/repos/mralexgray/Animated-Paths/comments{/number}
p370
aVhttps://api.github.com/repos/mralexgray/AnsiLove.framework/comments{/number}
p371
aVhttps://api.github.com/repos/mralexgray/ANTrackBar/comments{/number}
p372
aVhttps://api.github.com/repos/mralexgray/AOP-in-Objective-C/comments{/number}
p373
aVhttps://api.github.com/repos/mralexgray/Apaxy/comments{/number}
p374
aVhttps://api.github.com/repos/mralexgray/app/comments{/number}
p375
aVhttps://api.github.com/repos/mralexgray/appicns/comments{/number}
p376
aVhttps://api.github.com/repos/mralexgray/appify/comments{/number}
p377
aVhttps://api.github.com/repos/mralexgray/-REPONAME/commits{/sha}
p378
aVhttps://api.github.com/repos/mralexgray/ace/commits{/sha}
p379
aVhttps://api.github.com/repos/mralexgray/ACEView/commits{/sha}
p380
aVhttps://api.github.com/repos/mralexgray/ActiveLog/commits{/sha}
p381
aVhttps://api.github.com/repos/mralexgray/adium/commits{/sha}
p382
aVhttps://api.github.com/repos/mralexgray/ADLivelyTableView/commits{/sha}
p383
aVhttps://api.github.com/repos/mralexgray/AFIncrementalStore/commits{/sha}
p384
aVhttps://api.github.com/repos/mralexgray/AFNetworking/commits{/sha}
p385
aVhttps://api.github.com/repos/mralexgray/AGNSSplitView/commits{/sha}
p386
aVhttps://api.github.com/repos/mralexgray/AGScopeBar/commits{/sha}
p387
aVhttps://api.github.com/repos/mralexgray/agvtool-xcode-plugin/commits{/sha}
p388
aVhttps://api.github.com/repos/mralexgray/AHContentBrowser/commits{/sha}
p389
aVhttps://api.github.com/repos/mralexgray/AHLaunchCtl/commits{/sha}
p390
aVhttps://api.github.com/repos/mralexgray/AHLayout/commits{/sha}
p391
aVhttps://api.github.com/repos/mralexgray/Airmail-Plug-In-Framework/commits{/sha}
p392
aVhttps://api.github.com/repos/mralexgray/AJS-iTunes-API/commits{/sha}
p393
aVhttps://api.github.com/repos/mralexgray/Alcatraz/commits{/sha}
p394
aVhttps://api.github.com/repos/mralexgray/alcatraz-packages/commits{/sha}
p395
aVhttps://api.github.com/repos/mralexgray/alexicons/commits{/sha}
p396
aVhttps://api.github.com/repos/mralexgray/Alfred-Google-Translate/commits{/sha}
p397
aVhttps://api.github.com/repos/mralexgray/Amber/commits{/sha}
p398
aVhttps://api.github.com/repos/mralexgray/Amethyst/commits{/sha}
p399
aVhttps://api.github.com/repos/mralexgray/Animated-Paths/commits{/sha}
p400
aVhttps://api.github.com/repos/mralexgray/AnsiLove.framework/commits{/sha}
p401
aVhttps://api.github.com/repos/mralexgray/ANTrackBar/commits{/sha}
p402
aVhttps://api.github.com/repos/mralexgray/AOP-in-Objective-C/commits{/sha}
p403
aVhttps://api.github.com/repos/mralexgray/Apaxy/commits{/sha}
p404
aVhttps://api.github.com/repos/mralexgray/app/commits{/sha}
p405
aVhttps://api.github.com/repos/mralexgray/appicns/commits{/sha}
p406
aVhttps://api.github.com/repos/mralexgray/appify/commits{/sha}
p407
aVhttps://api.github.com/repos/mralexgray/-REPONAME/compare/{base}...{head}
p408
aVhttps://api.github.com/repos/mralexgray/ace/compare/{base}...{head}
p409
aVhttps://api.github.com/repos/mralexgray/ACEView/compare/{base}...{head}
p410
aVhttps://api.github.com/repos/mralexgray/ActiveLog/compare/{base}...{head}
p411
aVhttps://api.github.com/repos/mralexgray/adium/compare/{base}...{head}
p412
aVhttps://api.github.com/repos/mralexgray/ADLivelyTableView/compare/{base}...{head}
p413
aVhttps://api.github.com/repos/mralexgray/AFIncrementalStore/compare/{base}...{head}
p414
aVhttps://api.github.com/repos/mralexgray/AFNetworking/compare/{base}...{head}
p415
aVhttps://api.github.com/repos/mralexgray/AGNSSplitView/compare/{base}...{head}
p416
aVhttps://api.github.com/repos/mralexgray/AGScopeBar/compare/{base}...{head}
p417
aVhttps://api.github.com/repos/mralexgray/agvtool-xcode-plugin/compare/{base}...{head}
p418
aVhttps://api.github.com/repos/mralexgray/AHContentBrowser/compare/{base}...{head}
p419
aVhttps://api.github.com/repos/mralexgray/AHLaunchCtl/compare/{base}...{head}
p420
aVhttps://api.github.com/repos/mralexgray/AHLayout/compare/{base}...{head}
p421
aVhttps://api.github.com/repos/mralexgray/Airmail-Plug-In-Framework/compare/{base}...{head}
p422
aVhttps://api.github.com/repos/mralexgray/AJS-iTunes-API/compare/{base}...{head}
p423
aVhttps://api.github.com/repos/mralexgray/Alcatraz/compare/{base}...{head}
p424
aVhttps://api.github.com/repos/mralexgray/alcatraz-packages/compare/{base}...{head}
p425
aVhttps://api.github.com/repos/mralexgray/alexicons/compare/{base}...{head}
p426
aVhttps://api.github.com/repos/mralexgray/Alfred-Google-Translate/compare/{base}...{head}
p427
aVhttps://api.github.com/repos/mralexgray/Amber/compare/{base}...{head}
p428
aVhttps://api.github.com/repos/mralexgray/Amethyst/compare/{base}...{head}
p429
aVhttps://api.github.com/repos/mralexgray/Animated-Paths/compare/{base}...{head}
p430
aVhttps://api.github.com/repos/mralexgray/AnsiLove.framework/compare/{base}...{head}
p431
aVhttps://api.github.com/repos/mralexgray/ANTrackBar/compare/{base}...{head}
p432
aVhttps://api.github.com/repos/mralexgray/AOP-in-Objective-C/compare/{base}...{head}
p433
aVhttps://api.github.com/repos/mralexgray/Apaxy/compare/{base}...{head}
p434
aVhttps://api.github.com/repos/mralexgray/app/compare/{base}...{head}
p435
aVhttps://api.github.com/repos/mralexgray/appicns/compare/{base}...{head}
p436
aVhttps://api.github.com/repos/mralexgray/appify/compare/{base}...{head}
p437
aVhttps://api.github.com/repos/mralexgray/-REPONAME/contents/{+path}
p438
aVhttps://api.github.com/repos/mralexgray/ace/contents/{+path}
p439
aVhttps://api.github.com/repos/mralexgray/ACEView/contents/{+path}
p440
aVhttps://api.github.com/repos/mralexgray/ActiveLog/contents/{+path}
p441
aVhttps://api.github.com/repos/mralexgray/adium/contents/{+path}
p442
aVhttps://api.github.com/repos/mralexgray/ADLivelyTableView/contents/{+path}
p443
aVhttps://api.github.com/repos/mralexgray/AFIncrementalStore/contents/{+path}
p444
aVhttps://api.github.com/repos/mralexgray/AFNetworking/contents/{+path}
p445
aVhttps://api.github.com/repos/mralexgray/AGNSSplitView/contents/{+path}
p446
aVhttps://api.github.com/repos/mralexgray/AGScopeBar/contents/{+path}
p447
aVhttps://api.github.com/repos/mralexgray/agvtool-xcode-plugin/contents/{+path}
p448
aVhttps://api.github.com/repos/mralexgray/AHContentBrowser/contents/{+path}
p449
aVhttps://api.github.com/repos/mralexgray/AHLaunchCtl/contents/{+path}
p450
aVhttps://api.github.com/repos/mralexgray/AHLayout/contents/{+path}
p451
aVhttps://api.github.com/repos/mralexgray/Airmail-Plug-In-Framework/contents/{+path}
p452
aVhttps://api.github.com/repos/mralexgray/AJS-iTunes-API/contents/{+path}
p453
aVhttps://api.github.com/repos/mralexgray/Alcatraz/contents/{+path}
p454
aVhttps://api.github.com/repos/mralexgray/alcatraz-packages/contents/{+path}
p455
aVhttps://api.github.com/repos/mralexgray/alexicons/contents/{+path}
p456
aVhttps://api.github.com/repos/mralexgray/Alfred-Google-Translate/contents/{+path}
p457
aVhttps://api.github.com/repos/mralexgray/Amber/contents/{+path}
p458
aVhttps://api.github.com/repos/mralexgray/Amethyst/contents/{+path}
p459
aVhttps://api.github.com/repos/mralexgray/Animated-Paths/contents/{+path}
p460
aVhttps://api.github.com/repos/mralexgray/AnsiLove.framework/contents/{+path}
p461
aVhttps://api.github.com/repos/mralexgray/ANTrackBar/contents/{+path}
p462
aVhttps://api.github.com/repos/mralexgray/AOP-in-Objective-C/contents/{+path}
p463
aVhttps://api.github.com/repos/mralexgray/Apaxy/contents/{+path}
p464
aVhttps://api.github.com/repos/mralexgray/app/contents/{+path}
p465
aVhttps://api.github.com/repos/mralexgray/appicns/contents/{+path}
p466
aVhttps://api.github.com/repos/mralexgray/appify/contents/{+path}
p467
aVhttps://api.github.com/repos/mralexgray/-REPONAME/contributors
p468
aVhttps://api.github.com/repos/mralexgray/ace/contributors
p469
aVhttps://api.github.com/repos/mralexgray/ACEView/contributors
p470
aVhttps://api.github.com/repos/mralexgray/ActiveLog/contributors
p471
aVhttps://api.github.com/repos/mralexgray/adium/contributors
p472
aVhttps://api.github.com/repos/mralexgray/ADLivelyTableView/contributors
p473
aVhttps://api.github.com/repos/mralexgray/AFIncrementalStore/contributors
p474
aVhttps://api.github.com/repos/mralexgray/AFNetworking/contributors
p475
aVhttps://api.github.com/repos/mralexgray/AGNSSplitView/contributors
p476
aVhttps://api.github.com/repos/mralexgray/AGScopeBar/contributors
p477
aVhttps://api.github.com/repos/mralexgray/agvtool-xcode-plugin/contributors
p478
aVhttps://api.github.com/repos/mralexgray/AHContentBrowser/contributors
p479
aVhttps://api.github.com/repos/mralexgray/AHLaunchCtl/contributors
p480
aVhttps://api.github.com/repos/mralexgray/AHLayout/contributors
p481
aVhttps://api.github.com/repos/mralexgray/Airmail-Plug-In-Framework/contributors
p482
aVhttps://api.github.com/repos/mralexgray/AJS-iTunes-API/contributors
p483
aVhttps://api.github.com/repos/mralexgray/Alcatraz/contributors
p484
aVhttps://api.github.com/repos/mralexgray/alcatraz-packages/contributors
p485
aVhttps://api.github.com/repos/mralexgray/alexicons/contributors
p486
aVhttps://api.github.com/repos/mralexgray/Alfred-Google-Translate/contributors
p487
aVhttps://api.github.com/repos/mralexgray/Amber/contributors
p488
aVhttps://api.github.com/repos/mralexgray/Amethyst/contributors
p489
aVhttps://api.github.com/repos/mralexgray/Animated-Paths/contributors
p490
aVhttps://api.github.com/repos/mralexgray/AnsiLove.framework/contributors
p491
aVhttps://api.github.com/repos/mralexgray/ANTrackBar/contributors
p492
aVhttps://api.github.com/repos/mralexgray/AOP-in-Objective-C/contributors
p493
aVhttps://api.github.com/repos/mralexgray/Apaxy/contributors
p494
aVhttps://api.github.com/repos/mralexgray/app/contributors
p495
aVhttps://api.github.com/repos/mralexgray/appicns/contributors
p496
aVhttps://api.github.com/repos/mralexgray/appify/contributors
p497
aVmaster
p498
aVmaster
p499
aVmaster
p500
aVmaster
p501
aVmaster
p502
aVmaster
p503
aVmaster
p504
aVmaster
p505
aVmaster
p506
aVmaster
p507
aVmaster
p508
aVmaster
p509
aVmaster
p510
aVmaster
p511
aVmaster
p512
aVmaster
p513
aVmaster
p514
aVmaster
p515
aVmaster
p516
aVmaster
p517
aVmaster
p518
aVmaster
p519
aVmaster
p520
aVmaster
p521
aVmaster
p522
aVtravis-coveralls
p523
aVmaster
p524
aVmaster
p525
aVmaster
p526
aVmaster
p527
aNaVAce (Ajax.org Cloud9 Editor)
p528
aVUse the wonderful ACE editor in your Cocoa applications
p529
aVShut up all logs with active filter.
p530
aVOfficial mirror of hg.adium.im
p531
aVLively UITableView
p532
aVCore Data Persistence with AFNetworking, Done Right
p533
aVA delightful iOS and OS X networking framework
p534
aVSimple NSSplitView additions.
p535
aVCustom scope bar implementation for Cocoa
p536
aVthis is a plugin wrapper for agvtool for xcode.
p537
aVA Mac only webview that loads a fast readable version of the website if available.
p538
aVLaunchD Framework for Cocoa Apps
p539
aVAHLayout
p540
aV
p541
aVCocoa wrapper for the iTunes search API - for iOS and Mac OSX projects
p542
aVThe most awesome (and only) Xcode package manager!
p543
aVPackage list repository for Alcatraz
p544
aVGet popular cat names
p545
aVExtension for Alfred that will do a Google translate for you
p546
aVFork of the difficult-to-deal-with Amber.framework
p547
aVTiling window manager for OS X.
p548
aVDemo project: Animating the drawing of a CGPath with CAShapeLayer.strokeEnd
p549
aVCocoa Framework for rendering ANSi / ASCII art
p550
aVAn easy-to-use Cocoa seek bar with a pleasing appearance
p551
aVAn NSProxy based library for easily enabling AOP like functionality in Objective-C.
p552
aVA simple, customisable theme for your Apache directory listing.
p553
aVInstant mobile web app creation
p554
aVApplication icons, simplified
p555
aNaVhttps://api.github.com/repos/mralexgray/-REPONAME/downloads
p556
aVhttps://api.github.com/repos/mralexgray/ace/downloads
p557
aVhttps://api.github.com/repos/mralexgray/ACEView/downloads
p558
aVhttps://api.github.com/repos/mralexgray/ActiveLog/downloads
p559
aVhttps://api.github.com/repos/mralexgray/adium/downloads
p560
aVhttps://api.github.com/repos/mralexgray/ADLivelyTableView/downloads
p561
aVhttps://api.github.com/repos/mralexgray/AFIncrementalStore/downloads
p562
aVhttps://api.github.com/repos/mralexgray/AFNetworking/downloads
p563
aVhttps://api.github.com/repos/mralexgray/AGNSSplitView/downloads
p564
aVhttps://api.github.com/repos/mralexgray/AGScopeBar/downloads
p565
aVhttps://api.github.com/repos/mralexgray/agvtool-xcode-plugin/downloads
p566
aVhttps://api.github.com/repos/mralexgray/AHContentBrowser/downloads
p567
aVhttps://api.github.com/repos/mralexgray/AHLaunchCtl/downloads
p568
aVhttps://api.github.com/repos/mralexgray/AHLayout/downloads
p569
aVhttps://api.github.com/repos/mralexgray/Airmail-Plug-In-Framework/downloads
p570
aVhttps://api.github.com/repos/mralexgray/AJS-iTunes-API/downloads
p571
aVhttps://api.github.com/repos/mralexgray/Alcatraz/downloads
p572
aVhttps://api.github.com/repos/mralexgray/alcatraz-packages/downloads
p573
aVhttps://api.github.com/repos/mralexgray/alexicons/downloads
p574
aVhttps://api.github.com/repos/mralexgray/Alfred-Google-Translate/downloads
p575
aVhttps://api.github.com/repos/mralexgray/Amber/downloads
p576
aVhttps://api.github.com/repos/mralexgray/Amethyst/downloads
p577
aVhttps://api.github.com/repos/mralexgray/Animated-Paths/downloads
p578
aVhttps://api.github.com/repos/mralexgray/AnsiLove.framework/downloads
p579
aVhttps://api.github.com/repos/mralexgray/ANTrackBar/downloads
p580
aVhttps://api.github.com/repos/mralexgray/AOP-in-Objective-C/downloads
p581
aVhttps://api.github.com/repos/mralexgray/Apaxy/downloads
p582
aVhttps://api.github.com/repos/mralexgray/app/downloads
p583
aVhttps://api.github.com/repos/mralexgray/appicns/downloads
p584
aVhttps://api.github.com/repos/mralexgray/appify/downloads
p585
aVhttps://api.github.com/repos/mralexgray/-REPONAME/events
p586
aVhttps://api.github.com/repos/mralexgray/ace/events
p587
aVhttps://api.github.com/repos/mralexgray/ACEView/events
p588
aVhttps://api.github.com/repos/mralexgray/ActiveLog/events
p589
aVhttps://api.github.com/repos/mralexgray/adium/events
p590
aVhttps://api.github.com/repos/mralexgray/ADLivelyTableView/events
p591
aVhttps://api.github.com/repos/mralexgray/AFIncrementalStore/events
p592
aVhttps://api.github.com/repos/mralexgray/AFNetworking/events
p593
aVhttps://api.github.com/repos/mralexgray/AGNSSplitView/events
p594
aVhttps://api.github.com/repos/mralexgray/AGScopeBar/events
p595
aVhttps://api.github.com/repos/mralexgray/agvtool-xcode-plugin/events
p596
aVhttps://api.github.com/repos/mralexgray/AHContentBrowser/events
p597
aVhttps://api.github.com/repos/mralexgray/AHLaunchCtl/events
p598
aVhttps://api.github.com/repos/mralexgray/AHLayout/events
p599
aVhttps://api.github.com/repos/mralexgray/Airmail-Plug-In-Framework/events
p600
aVhttps://api.github.com/repos/mralexgray/AJS-iTunes-API/events
p601
aVhttps://api.github.com/repos/mralexgray/Alcatraz/events
p602
aVhttps://api.github.com/repos/mralexgray/alcatraz-packages/events
p603
aVhttps://api.github.com/repos/mralexgray/alexicons/events
p604
aVhttps://api.github.com/repos/mralexgray/Alfred-Google-Translate/events
p605
aVhttps://api.github.com/repos/mralexgray/Amber/events
p606
aVhttps://api.github.com/repos/mralexgray/Amethyst/events
p607
aVhttps://api.github.com/repos/mralexgray/Animated-Paths/events
p608
aVhttps://api.github.com/repos/mralexgray/AnsiLove.framework/events
p609
aVhttps://api.github.com/repos/mralexgray/ANTrackBar/events
p610
aVhttps://api.github.com/repos/mralexgray/AOP-in-Objective-C/events
p611
aVhttps://api.github.com/repos/mralexgray/Apaxy/events
p612
aVhttps://api.github.com/repos/mralexgray/app/events
p613
aVhttps://api.github.com/repos/mralexgray/appicns/events
p614
aVhttps://api.github.com/repos/mralexgray/appify/events
p615
aVhttps://api.github.com/repos/mralexgray/-REPONAME/forks
p616
aVhttps://api.github.com/repos/mralexgray/ace/forks
p617
aVhttps://api.github.com/repos/mralexgray/ACEView/forks
p618
aVhttps://api.github.com/repos/mralexgray/ActiveLog/forks
p619
aVhttps://api.github.com/repos/mralexgray/adium/forks
p620
aVhttps://api.github.com/repos/mralexgray/ADLivelyTableView/forks
p621
aVhttps://api.github.com/repos/mralexgray/AFIncrementalStore/forks
p622
aVhttps://api.github.com/repos/mralexgray/AFNetworking/forks
p623
aVhttps://api.github.com/repos/mralexgray/AGNSSplitView/forks
p624
aVhttps://api.github.com/repos/mralexgray/AGScopeBar/forks
p625
aVhttps://api.github.com/repos/mralexgray/agvtool-xcode-plugin/forks
p626
aVhttps://api.github.com/repos/mralexgray/AHContentBrowser/forks
p627
aVhttps://api.github.com/repos/mralexgray/AHLaunchCtl/forks
p628
aVhttps://api.github.com/repos/mralexgray/AHLayout/forks
p629
aVhttps://api.github.com/repos/mralexgray/Airmail-Plug-In-Framework/forks
p630
aVhttps://api.github.com/repos/mralexgray/AJS-iTunes-API/forks
p631
aVhttps://api.github.com/repos/mralexgray/Alcatraz/forks
p632
aVhttps://api.github.com/repos/mralexgray/alcatraz-packages/forks
p633
aVhttps://api.github.com/repos/mralexgray/alexicons/forks
p634
aVhttps://api.github.com/repos/mralexgray/Alfred-Google-Translate/forks
p635
aVhttps://api.github.com/repos/mralexgray/Amber/forks
p636
aVhttps://api.github.com/repos/mralexgray/Amethyst/forks
p637
aVhttps://api.github.com/repos/mralexgray/Animated-Paths/forks
p638
aVhttps://api.github.com/repos/mralexgray/AnsiLove.framework/forks
p639
aVhttps://api.github.com/repos/mralexgray/ANTrackBar/forks
p640
aVhttps://api.github.com/repos/mralexgray/AOP-in-Objective-C/forks
p641
aVhttps://api.github.com/repos/mralexgray/Apaxy/forks
p642
aVhttps://api.github.com/repos/mralexgray/app/forks
p643
aVhttps://api.github.com/repos/mralexgray/appicns/forks
p644
aVhttps://api.github.com/repos/mralexgray/appify/forks
p645
aVmralexgray/-REPONAME
p646
aVmralexgray/ace
p647
aVmralexgray/ACEView
p648
aVmralexgray/ActiveLog
p649
aVmralexgray/adium
p650
aVmralexgray/ADLivelyTableView
p651
aVmralexgray/AFIncrementalStore
p652
aVmralexgray/AFNetworking
p653
aVmralexgray/AGNSSplitView
p654
aVmralexgray/AGScopeBar
p655
aVmralexgray/agvtool-xcode-plugin
p656
aVmralexgray/AHContentBrowser
p657
aVmralexgray/AHLaunchCtl
p658
aVmralexgray/AHLayout
p659
aVmralexgray/Airmail-Plug-In-Framework
p660
aVmralexgray/AJS-iTunes-API
p661
aVmralexgray/Alcatraz
p662
aVmralexgray/alcatraz-packages
p663
aVmralexgray/alexicons
p664
aVmralexgray/Alfred-Google-Translate
p665
aVmralexgray/Amber
p666
aVmralexgray/Amethyst
p667
aVmralexgray/Animated-Paths
p668
aVmralexgray/AnsiLove.framework
p669
aVmralexgray/ANTrackBar
p670
aVmralexgray/AOP-in-Objective-C
p671
aVmralexgray/Apaxy
p672
aVmralexgray/app
p673
aVmralexgray/appicns
p674
aVmralexgray/appify
p675
aVhttps://api.github.com/repos/mralexgray/-REPONAME/git/commits{/sha}
p676
aVhttps://api.github.com/repos/mralexgray/ace/git/commits{/sha}
p677
aVhttps://api.github.com/repos/mralexgray/ACEView/git/commits{/sha}
p678
aVhttps://api.github.com/repos/mralexgray/ActiveLog/git/commits{/sha}
p679
aVhttps://api.github.com/repos/mralexgray/adium/git/commits{/sha}
p680
aVhttps://api.github.com/repos/mralexgray/ADLivelyTableView/git/commits{/sha}
p681
aVhttps://api.github.com/repos/mralexgray/AFIncrementalStore/git/commits{/sha}
p682
aVhttps://api.github.com/repos/mralexgray/AFNetworking/git/commits{/sha}
p683
aVhttps://api.github.com/repos/mralexgray/AGNSSplitView/git/commits{/sha}
p684
aVhttps://api.github.com/repos/mralexgray/AGScopeBar/git/commits{/sha}
p685
aVhttps://api.github.com/repos/mralexgray/agvtool-xcode-plugin/git/commits{/sha}
p686
aVhttps://api.github.com/repos/mralexgray/AHContentBrowser/git/commits{/sha}
p687
aVhttps://api.github.com/repos/mralexgray/AHLaunchCtl/git/commits{/sha}
p688
aVhttps://api.github.com/repos/mralexgray/AHLayout/git/commits{/sha}
p689
aVhttps://api.github.com/repos/mralexgray/Airmail-Plug-In-Framework/git/commits{/sha}
p690
aVhttps://api.github.com/repos/mralexgray/AJS-iTunes-API/git/commits{/sha}
p691
aVhttps://api.github.com/repos/mralexgray/Alcatraz/git/commits{/sha}
p692
aVhttps://api.github.com/repos/mralexgray/alcatraz-packages/git/commits{/sha}
p693
aVhttps://api.github.com/repos/mralexgray/alexicons/git/commits{/sha}
p694
aVhttps://api.github.com/repos/mralexgray/Alfred-Google-Translate/git/commits{/sha}
p695
aVhttps://api.github.com/repos/mralexgray/Amber/git/commits{/sha}
p696
aVhttps://api.github.com/repos/mralexgray/Amethyst/git/commits{/sha}
p697
aVhttps://api.github.com/repos/mralexgray/Animated-Paths/git/commits{/sha}
p698
aVhttps://api.github.com/repos/mralexgray/AnsiLove.framework/git/commits{/sha}
p699
aVhttps://api.github.com/repos/mralexgray/ANTrackBar/git/commits{/sha}
p700
aVhttps://api.github.com/repos/mralexgray/AOP-in-Objective-C/git/commits{/sha}
p701
aVhttps://api.github.com/repos/mralexgray/Apaxy/git/commits{/sha}
p702
aVhttps://api.github.com/repos/mralexgray/app/git/commits{/sha}
p703
aVhttps://api.github.com/repos/mralexgray/appicns/git/commits{/sha}
p704
aVhttps://api.github.com/repos/mralexgray/appify/git/commits{/sha}
p705
aVhttps://api.github.com/repos/mralexgray/-REPONAME/git/refs{/sha}
p706
aVhttps://api.github.com/repos/mralexgray/ace/git/refs{/sha}
p707
aVhttps://api.github.com/repos/mralexgray/ACEView/git/refs{/sha}
p708
aVhttps://api.github.com/repos/mralexgray/ActiveLog/git/refs{/sha}
p709
aVhttps://api.github.com/repos/mralexgray/adium/git/refs{/sha}
p710
aVhttps://api.github.com/repos/mralexgray/ADLivelyTableView/git/refs{/sha}
p711
aVhttps://api.github.com/repos/mralexgray/AFIncrementalStore/git/refs{/sha}
p712
aVhttps://api.github.com/repos/mralexgray/AFNetworking/git/refs{/sha}
p713
aVhttps://api.github.com/repos/mralexgray/AGNSSplitView/git/refs{/sha}
p714
aVhttps://api.github.com/repos/mralexgray/AGScopeBar/git/refs{/sha}
p715
aVhttps://api.github.com/repos/mralexgray/agvtool-xcode-plugin/git/refs{/sha}
p716
aVhttps://api.github.com/repos/mralexgray/AHContentBrowser/git/refs{/sha}
p717
aVhttps://api.github.com/repos/mralexgray/AHLaunchCtl/git/refs{/sha}
p718
aVhttps://api.github.com/repos/mralexgray/AHLayout/git/refs{/sha}
p719
aVhttps://api.github.com/repos/mralexgray/Airmail-Plug-In-Framework/git/refs{/sha}
p720
aVhttps://api.github.com/repos/mralexgray/AJS-iTunes-API/git/refs{/sha}
p721
aVhttps://api.github.com/repos/mralexgray/Alcatraz/git/refs{/sha}
p722
aVhttps://api.github.com/repos/mralexgray/alcatraz-packages/git/refs{/sha}
p723
aVhttps://api.github.com/repos/mralexgray/alexicons/git/refs{/sha}
p724
aVhttps://api.github.com/repos/mralexgray/Alfred-Google-Translate/git/refs{/sha}
p725
aVhttps://api.github.com/repos/mralexgray/Amber/git/refs{/sha}
p726
aVhttps://api.github.com/repos/mralexgray/Amethyst/git/refs{/sha}
p727
aVhttps://api.github.com/repos/mralexgray/Animated-Paths/git/refs{/sha}
p728
aVhttps://api.github.com/repos/mralexgray/AnsiLove.framework/git/refs{/sha}
p729
aVhttps://api.github.com/repos/mralexgray/ANTrackBar/git/refs{/sha}
p730
aVhttps://api.github.com/repos/mralexgray/AOP-in-Objective-C/git/refs{/sha}
p731
aVhttps://api.github.com/repos/mralexgray/Apaxy/git/refs{/sha}
p732
aVhttps://api.github.com/repos/mralexgray/app/git/refs{/sha}
p733
aVhttps://api.github.com/repos/mralexgray/appicns/git/refs{/sha}
p734
aVhttps://api.github.com/repos/mralexgray/appify/git/refs{/sha}
p735
aVhttps://api.github.com/repos/mralexgray/-REPONAME/git/tags{/sha}
p736
aVhttps://api.github.com/repos/mralexgray/ace/git/tags{/sha}
p737
aVhttps://api.github.com/repos/mralexgray/ACEView/git/tags{/sha}
p738
aVhttps://api.github.com/repos/mralexgray/ActiveLog/git/tags{/sha}
p739
aVhttps://api.github.com/repos/mralexgray/adium/git/tags{/sha}
p740
aVhttps://api.github.com/repos/mralexgray/ADLivelyTableView/git/tags{/sha}
p741
aVhttps://api.github.com/repos/mralexgray/AFIncrementalStore/git/tags{/sha}
p742
aVhttps://api.github.com/repos/mralexgray/AFNetworking/git/tags{/sha}
p743
aVhttps://api.github.com/repos/mralexgray/AGNSSplitView/git/tags{/sha}
p744
aVhttps://api.github.com/repos/mralexgray/AGScopeBar/git/tags{/sha}
p745
aVhttps://api.github.com/repos/mralexgray/agvtool-xcode-plugin/git/tags{/sha}
p746
aVhttps://api.github.com/repos/mralexgray/AHContentBrowser/git/tags{/sha}
p747
aVhttps://api.github.com/repos/mralexgray/AHLaunchCtl/git/tags{/sha}
p748
aVhttps://api.github.com/repos/mralexgray/AHLayout/git/tags{/sha}
p749
aVhttps://api.github.com/repos/mralexgray/Airmail-Plug-In-Framework/git/tags{/sha}
p750
aVhttps://api.github.com/repos/mralexgray/AJS-iTunes-API/git/tags{/sha}
p751
aVhttps://api.github.com/repos/mralexgray/Alcatraz/git/tags{/sha}
p752
aVhttps://api.github.com/repos/mralexgray/alcatraz-packages/git/tags{/sha}
p753
aVhttps://api.github.com/repos/mralexgray/alexicons/git/tags{/sha}
p754
aVhttps://api.github.com/repos/mralexgray/Alfred-Google-Translate/git/tags{/sha}
p755
aVhttps://api.github.com/repos/mralexgray/Amber/git/tags{/sha}
p756
aVhttps://api.github.com/repos/mralexgray/Amethyst/git/tags{/sha}
p757
aVhttps://api.github.com/repos/mralexgray/Animated-Paths/git/tags{/sha}
p758
aVhttps://api.github.com/repos/mralexgray/AnsiLove.framework/git/tags{/sha}
p759
aVhttps://api.github.com/repos/mralexgray/ANTrackBar/git/tags{/sha}
p760
aVhttps://api.github.com/repos/mralexgray/AOP-in-Objective-C/git/tags{/sha}
p761
aVhttps://api.github.com/repos/mralexgray/Apaxy/git/tags{/sha}
p762
aVhttps://api.github.com/repos/mralexgray/app/git/tags{/sha}
p763
aVhttps://api.github.com/repos/mralexgray/appicns/git/tags{/sha}
p764
aVhttps://api.github.com/repos/mralexgray/appify/git/tags{/sha}
p765
aVgit://github.com/mralexgray/-REPONAME.git
p766
aVgit://github.com/mralexgray/ace.git
p767
aVgit://github.com/mralexgray/ACEView.git
p768
aVgit://github.com/mralexgray/ActiveLog.git
p769
aVgit://github.com/mralexgray/adium.git
p770
aVgit://github.com/mralexgray/ADLivelyTableView.git
p771
aVgit://github.com/mralexgray/AFIncrementalStore.git
p772
aVgit://github.com/mralexgray/AFNetworking.git
p773
aVgit://github.com/mralexgray/AGNSSplitView.git
p774
aVgit://github.com/mralexgray/AGScopeBar.git
p775
aVgit://github.com/mralexgray/agvtool-xcode-plugin.git
p776
aVgit://github.com/mralexgray/AHContentBrowser.git
p777
aVgit://github.com/mralexgray/AHLaunchCtl.git
p778
aVgit://github.com/mralexgray/AHLayout.git
p779
aVgit://github.com/mralexgray/Airmail-Plug-In-Framework.git
p780
aVgit://github.com/mralexgray/AJS-iTunes-API.git
p781
aVgit://github.com/mralexgray/Alcatraz.git
p782
aVgit://github.com/mralexgray/alcatraz-packages.git
p783
aVgit://github.com/mralexgray/alexicons.git
p784
aVgit://github.com/mralexgray/Alfred-Google-Translate.git
p785
aVgit://github.com/mralexgray/Amber.git
p786
aVgit://github.com/mralexgray/Amethyst.git
p787
aVgit://github.com/mralexgray/Animated-Paths.git
p788
aVgit://github.com/mralexgray/AnsiLove.framework.git
p789
aVgit://github.com/mralexgray/ANTrackBar.git
p790
aVgit://github.com/mralexgray/AOP-in-Objective-C.git
p791
aVgit://github.com/mralexgray/Apaxy.git
p792
aVgit://github.com/mralexgray/app.git
p793
aVgit://github.com/mralexgray/appicns.git
p794
aVgit://github.com/mralexgray/appify.git
p795
aNaVhttp://ace.c9.io
p796
aNaVhttp://deepitpro.com/en/articles/ActiveLog/info/
p797
aNaVhttp://applidium.com/en/news/lively_uitableview/
p798
aNaVhttp://afnetworking.com
p799
aNaNaNag541
ag541
aNaNag541
aVmneorr.github.com/Alcatraz
p800
aVmneorr.github.com/Alcatraz
p801
aNaNaNaVhttp://ianyh.github.io/Amethyst/
p802
aVhttp://oleb.net/blog/2010/12/animating-drawing-of-cgpath-with-cashapelayer/
p803
aVhttp://byteproject.net
p804
ag541
aVhttp://innoli.hu/en/opensource/
p805
aNaNaVhttp://appicns.com
p806
aNaVhttps://api.github.com/repos/mralexgray/-REPONAME/hooks
p807
aVhttps://api.github.com/repos/mralexgray/ace/hooks
p808
aVhttps://api.github.com/repos/mralexgray/ACEView/hooks
p809
aVhttps://api.github.com/repos/mralexgray/ActiveLog/hooks
p810
aVhttps://api.github.com/repos/mralexgray/adium/hooks
p811
aVhttps://api.github.com/repos/mralexgray/ADLivelyTableView/hooks
p812
aVhttps://api.github.com/repos/mralexgray/AFIncrementalStore/hooks
p813
aVhttps://api.github.com/repos/mralexgray/AFNetworking/hooks
p814
aVhttps://api.github.com/repos/mralexgray/AGNSSplitView/hooks
p815
aVhttps://api.github.com/repos/mralexgray/AGScopeBar/hooks
p816
aVhttps://api.github.com/repos/mralexgray/agvtool-xcode-plugin/hooks
p817
aVhttps://api.github.com/repos/mralexgray/AHContentBrowser/hooks
p818
aVhttps://api.github.com/repos/mralexgray/AHLaunchCtl/hooks
p819
aVhttps://api.github.com/repos/mralexgray/AHLayout/hooks
p820
aVhttps://api.github.com/repos/mralexgray/Airmail-Plug-In-Framework/hooks
p821
aVhttps://api.github.com/repos/mralexgray/AJS-iTunes-API/hooks
p822
aVhttps://api.github.com/repos/mralexgray/Alcatraz/hooks
p823
aVhttps://api.github.com/repos/mralexgray/alcatraz-packages/hooks
p824
aVhttps://api.github.com/repos/mralexgray/alexicons/hooks
p825
aVhttps://api.github.com/repos/mralexgray/Alfred-Google-Translate/hooks
p826
aVhttps://api.github.com/repos/mralexgray/Amber/hooks
p827
aVhttps://api.github.com/repos/mralexgray/Amethyst/hooks
p828
aVhttps://api.github.com/repos/mralexgray/Animated-Paths/hooks
p829
aVhttps://api.github.com/repos/mralexgray/AnsiLove.framework/hooks
p830
aVhttps://api.github.com/repos/mralexgray/ANTrackBar/hooks
p831
aVhttps://api.github.com/repos/mralexgray/AOP-in-Objective-C/hooks
p832
aVhttps://api.github.com/repos/mralexgray/Apaxy/hooks
p833
aVhttps://api.github.com/repos/mralexgray/app/hooks
p834
aVhttps://api.github.com/repos/mralexgray/appicns/hooks
p835
aVhttps://api.github.com/repos/mralexgray/appify/hooks
p836
aVhttps://github.com/mralexgray/-REPONAME
p837
aVhttps://github.com/mralexgray/ace
p838
aVhttps://github.com/mralexgray/ACEView
p839
aVhttps://github.com/mralexgray/ActiveLog
p840
aVhttps://github.com/mralexgray/adium
p841
aVhttps://github.com/mralexgray/ADLivelyTableView
p842
aVhttps://github.com/mralexgray/AFIncrementalStore
p843
aVhttps://github.com/mralexgray/AFNetworking
p844
aVhttps://github.com/mralexgray/AGNSSplitView
p845
aVhttps://github.com/mralexgray/AGScopeBar
p846
aVhttps://github.com/mralexgray/agvtool-xcode-plugin
p847
aVhttps://github.com/mralexgray/AHContentBrowser
p848
aVhttps://github.com/mralexgray/AHLaunchCtl
p849
aVhttps://github.com/mralexgray/AHLayout
p850
aVhttps://github.com/mralexgray/Airmail-Plug-In-Framework
p851
aVhttps://github.com/mralexgray/AJS-iTunes-API
p852
aVhttps://github.com/mralexgray/Alcatraz
p853
aVhttps://github.com/mralexgray/alcatraz-packages
p854
aVhttps://github.com/mralexgray/alexicons
p855
aVhttps://github.com/mralexgray/Alfred-Google-Translate
p856
aVhttps://github.com/mralexgray/Amber
p857
aVhttps://github.com/mralexgray/Amethyst
p858
aVhttps://github.com/mralexgray/Animated-Paths
p859
aVhttps://github.com/mralexgray/AnsiLove.framework
p860
aVhttps://github.com/mralexgray/ANTrackBar
p861
aVhttps://github.com/mralexgray/AOP-in-Objective-C
p862
aVhttps://github.com/mralexgray/Apaxy
p863
aVhttps://github.com/mralexgray/app
p864
aVhttps://github.com/mralexgray/appicns
p865
aVhttps://github.com/mralexgray/appify
p866
aVhttps://api.github.com/repos/mralexgray/-REPONAME/issues/comments{/number}
p867
aVhttps://api.github.com/repos/mralexgray/ace/issues/comments{/number}
p868
aVhttps://api.github.com/repos/mralexgray/ACEView/issues/comments{/number}
p869
aVhttps://api.github.com/repos/mralexgray/ActiveLog/issues/comments{/number}
p870
aVhttps://api.github.com/repos/mralexgray/adium/issues/comments{/number}
p871
aVhttps://api.github.com/repos/mralexgray/ADLivelyTableView/issues/comments{/number}
p872
aVhttps://api.github.com/repos/mralexgray/AFIncrementalStore/issues/comments{/number}
p873
aVhttps://api.github.com/repos/mralexgray/AFNetworking/issues/comments{/number}
p874
aVhttps://api.github.com/repos/mralexgray/AGNSSplitView/issues/comments{/number}
p875
aVhttps://api.github.com/repos/mralexgray/AGScopeBar/issues/comments{/number}
p876
aVhttps://api.github.com/repos/mralexgray/agvtool-xcode-plugin/issues/comments{/number}
p877
aVhttps://api.github.com/repos/mralexgray/AHContentBrowser/issues/comments{/number}
p878
aVhttps://api.github.com/repos/mralexgray/AHLaunchCtl/issues/comments{/number}
p879
aVhttps://api.github.com/repos/mralexgray/AHLayout/issues/comments{/number}
p880
aVhttps://api.github.com/repos/mralexgray/Airmail-Plug-In-Framework/issues/comments{/number}
p881
aVhttps://api.github.com/repos/mralexgray/AJS-iTunes-API/issues/comments{/number}
p882
aVhttps://api.github.com/repos/mralexgray/Alcatraz/issues/comments{/number}
p883
aVhttps://api.github.com/repos/mralexgray/alcatraz-packages/issues/comments{/number}
p884
aVhttps://api.github.com/repos/mralexgray/alexicons/issues/comments{/number}
p885
aVhttps://api.github.com/repos/mralexgray/Alfred-Google-Translate/issues/comments{/number}
p886
aVhttps://api.github.com/repos/mralexgray/Amber/issues/comments{/number}
p887
aVhttps://api.github.com/repos/mralexgray/Amethyst/issues/comments{/number}
p888
aVhttps://api.github.com/repos/mralexgray/Animated-Paths/issues/comments{/number}
p889
aVhttps://api.github.com/repos/mralexgray/AnsiLove.framework/issues/comments{/number}
p890
aVhttps://api.github.com/repos/mralexgray/ANTrackBar/issues/comments{/number}
p891
aVhttps://api.github.com/repos/mralexgray/AOP-in-Objective-C/issues/comments{/number}
p892
aVhttps://api.github.com/repos/mralexgray/Apaxy/issues/comments{/number}
p893
aVhttps://api.github.com/repos/mralexgray/app/issues/comments{/number}
p894
aVhttps://api.github.com/repos/mralexgray/appicns/issues/comments{/number}
p895
aVhttps://api.github.com/repos/mralexgray/appify/issues/comments{/number}
p896
aVhttps://api.github.com/repos/mralexgray/-REPONAME/issues/events{/number}
p897
aVhttps://api.github.com/repos/mralexgray/ace/issues/events{/number}
p898
aVhttps://api.github.com/repos/mralexgray/ACEView/issues/events{/number}
p899
aVhttps://api.github.com/repos/mralexgray/ActiveLog/issues/events{/number}
p900
aVhttps://api.github.com/repos/mralexgray/adium/issues/events{/number}
p901
aVhttps://api.github.com/repos/mralexgray/ADLivelyTableView/issues/events{/number}
p902
aVhttps://api.github.com/repos/mralexgray/AFIncrementalStore/issues/events{/number}
p903
aVhttps://api.github.com/repos/mralexgray/AFNetworking/issues/events{/number}
p904
aVhttps://api.github.com/repos/mralexgray/AGNSSplitView/issues/events{/number}
p905
aVhttps://api.github.com/repos/mralexgray/AGScopeBar/issues/events{/number}
p906
aVhttps://api.github.com/repos/mralexgray/agvtool-xcode-plugin/issues/events{/number}
p907
aVhttps://api.github.com/repos/mralexgray/AHContentBrowser/issues/events{/number}
p908
aVhttps://api.github.com/repos/mralexgray/AHLaunchCtl/issues/events{/number}
p909
aVhttps://api.github.com/repos/mralexgray/AHLayout/issues/events{/number}
p910
aVhttps://api.github.com/repos/mralexgray/Airmail-Plug-In-Framework/issues/events{/number}
p911
aVhttps://api.github.com/repos/mralexgray/AJS-iTunes-API/issues/events{/number}
p912
aVhttps://api.github.com/repos/mralexgray/Alcatraz/issues/events{/number}
p913
aVhttps://api.github.com/repos/mralexgray/alcatraz-packages/issues/events{/number}
p914
aVhttps://api.github.com/repos/mralexgray/alexicons/issues/events{/number}
p915
aVhttps://api.github.com/repos/mralexgray/Alfred-Google-Translate/issues/events{/number}
p916
aVhttps://api.github.com/repos/mralexgray/Amber/issues/events{/number}
p917
aVhttps://api.github.com/repos/mralexgray/Amethyst/issues/events{/number}
p918
aVhttps://api.github.com/repos/mralexgray/Animated-Paths/issues/events{/number}
p919
aVhttps://api.github.com/repos/mralexgray/AnsiLove.framework/issues/events{/number}
p920
aVhttps://api.github.com/repos/mralexgray/ANTrackBar/issues/events{/number}
p921
aVhttps://api.github.com/repos/mralexgray/AOP-in-Objective-C/issues/events{/number}
p922
aVhttps://api.github.com/repos/mralexgray/Apaxy/issues/events{/number}
p923
aVhttps://api.github.com/repos/mralexgray/app/issues/events{/number}
p924
aVhttps://api.github.com/repos/mralexgray/appicns/issues/events{/number}
p925
aVhttps://api.github.com/repos/mralexgray/appify/issues/events{/number}
p926
aVhttps://api.github.com/repos/mralexgray/-REPONAME/issues{/number}
p927
aVhttps://api.github.com/repos/mralexgray/ace/issues{/number}
p928
aVhttps://api.github.com/repos/mralexgray/ACEView/issues{/number}
p929
aVhttps://api.github.com/repos/mralexgray/ActiveLog/issues{/number}
p930
aVhttps://api.github.com/repos/mralexgray/adium/issues{/number}
p931
aVhttps://api.github.com/repos/mralexgray/ADLivelyTableView/issues{/number}
p932
aVhttps://api.github.com/repos/mralexgray/AFIncrementalStore/issues{/number}
p933
aVhttps://api.github.com/repos/mralexgray/AFNetworking/issues{/number}
p934
aVhttps://api.github.com/repos/mralexgray/AGNSSplitView/issues{/number}
p935
aVhttps://api.github.com/repos/mralexgray/AGScopeBar/issues{/number}
p936
aVhttps://api.github.com/repos/mralexgray/agvtool-xcode-plugin/issues{/number}
p937
aVhttps://api.github.com/repos/mralexgray/AHContentBrowser/issues{/number}
p938
aVhttps://api.github.com/repos/mralexgray/AHLaunchCtl/issues{/number}
p939
aVhttps://api.github.com/repos/mralexgray/AHLayout/issues{/number}
p940
aVhttps://api.github.com/repos/mralexgray/Airmail-Plug-In-Framework/issues{/number}
p941
aVhttps://api.github.com/repos/mralexgray/AJS-iTunes-API/issues{/number}
p942
aVhttps://api.github.com/repos/mralexgray/Alcatraz/issues{/number}
p943
aVhttps://api.github.com/repos/mralexgray/alcatraz-packages/issues{/number}
p944
aVhttps://api.github.com/repos/mralexgray/alexicons/issues{/number}
p945
aVhttps://api.github.com/repos/mralexgray/Alfred-Google-Translate/issues{/number}
p946
aVhttps://api.github.com/repos/mralexgray/Amber/issues{/number}
p947
aVhttps://api.github.com/repos/mralexgray/Amethyst/issues{/number}
p948
aVhttps://api.github.com/repos/mralexgray/Animated-Paths/issues{/number}
p949
aVhttps://api.github.com/repos/mralexgray/AnsiLove.framework/issues{/number}
p950
aVhttps://api.github.com/repos/mralexgray/ANTrackBar/issues{/number}
p951
aVhttps://api.github.com/repos/mralexgray/AOP-in-Objective-C/issues{/number}
p952
aVhttps://api.github.com/repos/mralexgray/Apaxy/issues{/number}
p953
aVhttps://api.github.com/repos/mralexgray/app/issues{/number}
p954
aVhttps://api.github.com/repos/mralexgray/appicns/issues{/number}
p955
aVhttps://api.github.com/repos/mralexgray/appify/issues{/number}
p956
aVhttps://api.github.com/repos/mralexgray/-REPONAME/keys{/key_id}
p957
aVhttps://api.github.com/repos/mralexgray/ace/keys{/key_id}
p958
aVhttps://api.github.com/repos/mralexgray/ACEView/keys{/key_id}
p959
aVhttps://api.github.com/repos/mralexgray/ActiveLog/keys{/key_id}
p960
aVhttps://api.github.com/repos/mralexgray/adium/keys{/key_id}
p961
aVhttps://api.github.com/repos/mralexgray/ADLivelyTableView/keys{/key_id}
p962
aVhttps://api.github.com/repos/mralexgray/AFIncrementalStore/keys{/key_id}
p963
aVhttps://api.github.com/repos/mralexgray/AFNetworking/keys{/key_id}
p964
aVhttps://api.github.com/repos/mralexgray/AGNSSplitView/keys{/key_id}
p965
aVhttps://api.github.com/repos/mralexgray/AGScopeBar/keys{/key_id}
p966
aVhttps://api.github.com/repos/mralexgray/agvtool-xcode-plugin/keys{/key_id}
p967
aVhttps://api.github.com/repos/mralexgray/AHContentBrowser/keys{/key_id}
p968
aVhttps://api.github.com/repos/mralexgray/AHLaunchCtl/keys{/key_id}
p969
aVhttps://api.github.com/repos/mralexgray/AHLayout/keys{/key_id}
p970
aVhttps://api.github.com/repos/mralexgray/Airmail-Plug-In-Framework/keys{/key_id}
p971
aVhttps://api.github.com/repos/mralexgray/AJS-iTunes-API/keys{/key_id}
p972
aVhttps://api.github.com/repos/mralexgray/Alcatraz/keys{/key_id}
p973
aVhttps://api.github.com/repos/mralexgray/alcatraz-packages/keys{/key_id}
p974
aVhttps://api.github.com/repos/mralexgray/alexicons/keys{/key_id}
p975
aVhttps://api.github.com/repos/mralexgray/Alfred-Google-Translate/keys{/key_id}
p976
aVhttps://api.github.com/repos/mralexgray/Amber/keys{/key_id}
p977
aVhttps://api.github.com/repos/mralexgray/Amethyst/keys{/key_id}
p978
aVhttps://api.github.com/repos/mralexgray/Animated-Paths/keys{/key_id}
p979
aVhttps://api.github.com/repos/mralexgray/AnsiLove.framework/keys{/key_id}
p980
aVhttps://api.github.com/repos/mralexgray/ANTrackBar/keys{/key_id}
p981
aVhttps://api.github.com/repos/mralexgray/AOP-in-Objective-C/keys{/key_id}
p982
aVhttps://api.github.com/repos/mralexgray/Apaxy/keys{/key_id}
p983
aVhttps://api.github.com/repos/mralexgray/app/keys{/key_id}
p984
aVhttps://api.github.com/repos/mralexgray/appicns/keys{/key_id}
p985
aVhttps://api.github.com/repos/mralexgray/appify/keys{/key_id}
p986
aVhttps://api.github.com/repos/mralexgray/-REPONAME/labels{/name}
p987
aVhttps://api.github.com/repos/mralexgray/ace/labels{/name}
p988
aVhttps://api.github.com/repos/mralexgray/ACEView/labels{/name}
p989
aVhttps://api.github.com/repos/mralexgray/ActiveLog/labels{/name}
p990
aVhttps://api.github.com/repos/mralexgray/adium/labels{/name}
p991
aVhttps://api.github.com/repos/mralexgray/ADLivelyTableView/labels{/name}
p992
aVhttps://api.github.com/repos/mralexgray/AFIncrementalStore/labels{/name}
p993
aVhttps://api.github.com/repos/mralexgray/AFNetworking/labels{/name}
p994
aVhttps://api.github.com/repos/mralexgray/AGNSSplitView/labels{/name}
p995
aVhttps://api.github.com/repos/mralexgray/AGScopeBar/labels{/name}
p996
aVhttps://api.github.com/repos/mralexgray/agvtool-xcode-plugin/labels{/name}
p997
aVhttps://api.github.com/repos/mralexgray/AHContentBrowser/labels{/name}
p998
aVhttps://api.github.com/repos/mralexgray/AHLaunchCtl/labels{/name}
p999
aVhttps://api.github.com/repos/mralexgray/AHLayout/labels{/name}
p1000
aVhttps://api.github.com/repos/mralexgray/Airmail-Plug-In-Framework/labels{/name}
p1001
aVhttps://api.github.com/repos/mralexgray/AJS-iTunes-API/labels{/name}
p1002
aVhttps://api.github.com/repos/mralexgray/Alcatraz/labels{/name}
p1003
aVhttps://api.github.com/repos/mralexgray/alcatraz-packages/labels{/name}
p1004
aVhttps://api.github.com/repos/mralexgray/alexicons/labels{/name}
p1005
aVhttps://api.github.com/repos/mralexgray/Alfred-Google-Translate/labels{/name}
p1006
aVhttps://api.github.com/repos/mralexgray/Amber/labels{/name}
p1007
aVhttps://api.github.com/repos/mralexgray/Amethyst/labels{/name}
p1008
aVhttps://api.github.com/repos/mralexgray/Animated-Paths/labels{/name}
p1009
aVhttps://api.github.com/repos/mralexgray/AnsiLove.framework/labels{/name}
p1010
aVhttps://api.github.com/repos/mralexgray/ANTrackBar/labels{/name}
p1011
aVhttps://api.github.com/repos/mralexgray/AOP-in-Objective-C/labels{/name}
p1012
aVhttps://api.github.com/repos/mralexgray/Apaxy/labels{/name}
p1013
aVhttps://api.github.com/repos/mralexgray/app/labels{/name}
p1014
aVhttps://api.github.com/repos/mralexgray/appicns/labels{/name}
p1015
aVhttps://api.github.com/repos/mralexgray/appify/labels{/name}
p1016
aNaVJavaScript
p1017
aVObjective-C
p1018
aVObjective-C
p1019
aVObjective-C
p1020
aVObjective-C
p1021
aVObjective-C
p1022
aVObjective-C
p1023
aVObjective-C
p1024
aVObjective-C
p1025
aVObjective-C
p1026
aVObjective-C
p1027
aVObjective-C
p1028
aVObjective-C
p1029
aNaVObjective-C
p1030
aVObjective-C
p1031
aVRuby
p1032
aVCoffeeScript
p1033
aVShell
p1034
aNaVObjective-C
p1035
aVObjective-C
p1036
aVM
p1037
aVObjective-C
p1038
aVObjective-C
p1039
aVCSS
p1040
aVJavaScript
p1041
aNaNaVhttps://api.github.com/repos/mralexgray/-REPONAME/languages
p1042
aVhttps://api.github.com/repos/mralexgray/ace/languages
p1043
aVhttps://api.github.com/repos/mralexgray/ACEView/languages
p1044
aVhttps://api.github.com/repos/mralexgray/ActiveLog/languages
p1045
aVhttps://api.github.com/repos/mralexgray/adium/languages
p1046
aVhttps://api.github.com/repos/mralexgray/ADLivelyTableView/languages
p1047
aVhttps://api.github.com/repos/mralexgray/AFIncrementalStore/languages
p1048
aVhttps://api.github.com/repos/mralexgray/AFNetworking/languages
p1049
aVhttps://api.github.com/repos/mralexgray/AGNSSplitView/languages
p1050
aVhttps://api.github.com/repos/mralexgray/AGScopeBar/languages
p1051
aVhttps://api.github.com/repos/mralexgray/agvtool-xcode-plugin/languages
p1052
aVhttps://api.github.com/repos/mralexgray/AHContentBrowser/languages
p1053
aVhttps://api.github.com/repos/mralexgray/AHLaunchCtl/languages
p1054
aVhttps://api.github.com/repos/mralexgray/AHLayout/languages
p1055
aVhttps://api.github.com/repos/mralexgray/Airmail-Plug-In-Framework/languages
p1056
aVhttps://api.github.com/repos/mralexgray/AJS-iTunes-API/languages
p1057
aVhttps://api.github.com/repos/mralexgray/Alcatraz/languages
p1058
aVhttps://api.github.com/repos/mralexgray/alcatraz-packages/languages
p1059
aVhttps://api.github.com/repos/mralexgray/alexicons/languages
p1060
aVhttps://api.github.com/repos/mralexgray/Alfred-Google-Translate/languages
p1061
aVhttps://api.github.com/repos/mralexgray/Amber/languages
p1062
aVhttps://api.github.com/repos/mralexgray/Amethyst/languages
p1063
aVhttps://api.github.com/repos/mralexgray/Animated-Paths/languages
p1064
aVhttps://api.github.com/repos/mralexgray/AnsiLove.framework/languages
p1065
aVhttps://api.github.com/repos/mralexgray/ANTrackBar/languages
p1066
aVhttps://api.github.com/repos/mralexgray/AOP-in-Objective-C/languages
p1067
aVhttps://api.github.com/repos/mralexgray/Apaxy/languages
p1068
aVhttps://api.github.com/repos/mralexgray/app/languages
p1069
aVhttps://api.github.com/repos/mralexgray/appicns/languages
p1070
aVhttps://api.github.com/repos/mralexgray/appify/languages
p1071
aVhttps://api.github.com/repos/mralexgray/-REPONAME/merges
p1072
aVhttps://api.github.com/repos/mralexgray/ace/merges
p1073
aVhttps://api.github.com/repos/mralexgray/ACEView/merges
p1074
aVhttps://api.github.com/repos/mralexgray/ActiveLog/merges
p1075
aVhttps://api.github.com/repos/mralexgray/adium/merges
p1076
aVhttps://api.github.com/repos/mralexgray/ADLivelyTableView/merges
p1077
aVhttps://api.github.com/repos/mralexgray/AFIncrementalStore/merges
p1078
aVhttps://api.github.com/repos/mralexgray/AFNetworking/merges
p1079
aVhttps://api.github.com/repos/mralexgray/AGNSSplitView/merges
p1080
aVhttps://api.github.com/repos/mralexgray/AGScopeBar/merges
p1081
aVhttps://api.github.com/repos/mralexgray/agvtool-xcode-plugin/merges
p1082
aVhttps://api.github.com/repos/mralexgray/AHContentBrowser/merges
p1083
aVhttps://api.github.com/repos/mralexgray/AHLaunchCtl/merges
p1084
aVhttps://api.github.com/repos/mralexgray/AHLayout/merges
p1085
aVhttps://api.github.com/repos/mralexgray/Airmail-Plug-In-Framework/merges
p1086
aVhttps://api.github.com/repos/mralexgray/AJS-iTunes-API/merges
p1087
aVhttps://api.github.com/repos/mralexgray/Alcatraz/merges
p1088
aVhttps://api.github.com/repos/mralexgray/alcatraz-packages/merges
p1089
aVhttps://api.github.com/repos/mralexgray/alexicons/merges
p1090
aVhttps://api.github.com/repos/mralexgray/Alfred-Google-Translate/merges
p1091
aVhttps://api.github.com/repos/mralexgray/Amber/merges
p1092
aVhttps://api.github.com/repos/mralexgray/Amethyst/merges
p1093
aVhttps://api.github.com/repos/mralexgray/Animated-Paths/merges
p1094
aVhttps://api.github.com/repos/mralexgray/AnsiLove.framework/merges
p1095
aVhttps://api.github.com/repos/mralexgray/ANTrackBar/merges
p1096
aVhttps://api.github.com/repos/mralexgray/AOP-in-Objective-C/merges
p1097
aVhttps://api.github.com/repos/mralexgray/Apaxy/merges
p1098
aVhttps://api.github.com/repos/mralexgray/app/merges
p1099
aVhttps://api.github.com/repos/mralexgray/appicns/merges
p1100
aVhttps://api.github.com/repos/mralexgray/appify/merges
p1101
aVhttps://api.github.com/repos/mralexgray/-REPONAME/milestones{/number}
p1102
aVhttps://api.github.com/repos/mralexgray/ace/milestones{/number}
p1103
aVhttps://api.github.com/repos/mralexgray/ACEView/milestones{/number}
p1104
aVhttps://api.github.com/repos/mralexgray/ActiveLog/milestones{/number}
p1105
aVhttps://api.github.com/repos/mralexgray/adium/milestones{/number}
p1106
aVhttps://api.github.com/repos/mralexgray/ADLivelyTableView/milestones{/number}
p1107
aVhttps://api.github.com/repos/mralexgray/AFIncrementalStore/milestones{/number}
p1108
aVhttps://api.github.com/repos/mralexgray/AFNetworking/milestones{/number}
p1109
aVhttps://api.github.com/repos/mralexgray/AGNSSplitView/milestones{/number}
p1110
aVhttps://api.github.com/repos/mralexgray/AGScopeBar/milestones{/number}
p1111
aVhttps://api.github.com/repos/mralexgray/agvtool-xcode-plugin/milestones{/number}
p1112
aVhttps://api.github.com/repos/mralexgray/AHContentBrowser/milestones{/number}
p1113
aVhttps://api.github.com/repos/mralexgray/AHLaunchCtl/milestones{/number}
p1114
aVhttps://api.github.com/repos/mralexgray/AHLayout/milestones{/number}
p1115
aVhttps://api.github.com/repos/mralexgray/Airmail-Plug-In-Framework/milestones{/number}
p1116
aVhttps://api.github.com/repos/mralexgray/AJS-iTunes-API/milestones{/number}
p1117
aVhttps://api.github.com/repos/mralexgray/Alcatraz/milestones{/number}
p1118
aVhttps://api.github.com/repos/mralexgray/alcatraz-packages/milestones{/number}
p1119
aVhttps://api.github.com/repos/mralexgray/alexicons/milestones{/number}
p1120
aVhttps://api.github.com/repos/mralexgray/Alfred-Google-Translate/milestones{/number}
p1121
aVhttps://api.github.com/repos/mralexgray/Amber/milestones{/number}
p1122
aVhttps://api.github.com/repos/mralexgray/Amethyst/milestones{/number}
p1123
aVhttps://api.github.com/repos/mralexgray/Animated-Paths/milestones{/number}
p1124
aVhttps://api.github.com/repos/mralexgray/AnsiLove.framework/milestones{/number}
p1125
aVhttps://api.github.com/repos/mralexgray/ANTrackBar/milestones{/number}
p1126
aVhttps://api.github.com/repos/mralexgray/AOP-in-Objective-C/milestones{/number}
p1127
aVhttps://api.github.com/repos/mralexgray/Apaxy/milestones{/number}
p1128
aVhttps://api.github.com/repos/mralexgray/app/milestones{/number}
p1129
aVhttps://api.github.com/repos/mralexgray/appicns/milestones{/number}
p1130
aVhttps://api.github.com/repos/mralexgray/appify/milestones{/number}
p1131
aV-REPONAME
p1132
aVace
p1133
aVACEView
p1134
aVActiveLog
p1135
aVadium
p1136
aVADLivelyTableView
p1137
aVAFIncrementalStore
p1138
aVAFNetworking
p1139
aVAGNSSplitView
p1140
aVAGScopeBar
p1141
aVagvtool-xcode-plugin
p1142
aVAHContentBrowser
p1143
aVAHLaunchCtl
p1144
aVAHLayout
p1145
aVAirmail-Plug-In-Framework
p1146
aVAJS-iTunes-API
p1147
aVAlcatraz
p1148
aValcatraz-packages
p1149
aValexicons
p1150
aVAlfred-Google-Translate
p1151
aVAmber
p1152
aVAmethyst
p1153
aVAnimated-Paths
p1154
aVAnsiLove.framework
p1155
aVANTrackBar
p1156
aVAOP-in-Objective-C
p1157
aVApaxy
p1158
aVapp
p1159
aVappicns
p1160
aVappify
p1161
aVhttps://api.github.com/repos/mralexgray/-REPONAME/notifications{?since,all,participating}
p1162
aVhttps://api.github.com/repos/mralexgray/ace/notifications{?since,all,participating}
p1163
aVhttps://api.github.com/repos/mralexgray/ACEView/notifications{?since,all,participating}
p1164
aVhttps://api.github.com/repos/mralexgray/ActiveLog/notifications{?since,all,participating}
p1165
aVhttps://api.github.com/repos/mralexgray/adium/notifications{?since,all,participating}
p1166
aVhttps://api.github.com/repos/mralexgray/ADLivelyTableView/notifications{?since,all,participating}
p1167
aVhttps://api.github.com/repos/mralexgray/AFIncrementalStore/notifications{?since,all,participating}
p1168
aVhttps://api.github.com/repos/mralexgray/AFNetworking/notifications{?since,all,participating}
p1169
aVhttps://api.github.com/repos/mralexgray/AGNSSplitView/notifications{?since,all,participating}
p1170
aVhttps://api.github.com/repos/mralexgray/AGScopeBar/notifications{?since,all,participating}
p1171
aVhttps://api.github.com/repos/mralexgray/agvtool-xcode-plugin/notifications{?since,all,participating}
p1172
aVhttps://api.github.com/repos/mralexgray/AHContentBrowser/notifications{?since,all,participating}
p1173
aVhttps://api.github.com/repos/mralexgray/AHLaunchCtl/notifications{?since,all,participating}
p1174
aVhttps://api.github.com/repos/mralexgray/AHLayout/notifications{?since,all,participating}
p1175
aVhttps://api.github.com/repos/mralexgray/Airmail-Plug-In-Framework/notifications{?since,all,participating}
p1176
aVhttps://api.github.com/repos/mralexgray/AJS-iTunes-API/notifications{?since,all,participating}
p1177
aVhttps://api.github.com/repos/mralexgray/Alcatraz/notifications{?since,all,participating}
p1178
aVhttps://api.github.com/repos/mralexgray/alcatraz-packages/notifications{?since,all,participating}
p1179
aVhttps://api.github.com/repos/mralexgray/alexicons/notifications{?since,all,participating}
p1180
aVhttps://api.github.com/repos/mralexgray/Alfred-Google-Translate/notifications{?since,all,participating}
p1181
aVhttps://api.github.com/repos/mralexgray/Amber/notifications{?since,all,participating}
p1182
aVhttps://api.github.com/repos/mralexgray/Amethyst/notifications{?since,all,participating}
p1183
aVhttps://api.github.com/repos/mralexgray/Animated-Paths/notifications{?since,all,participating}
p1184
aVhttps://api.github.com/repos/mralexgray/AnsiLove.framework/notifications{?since,all,participating}
p1185
aVhttps://api.github.com/repos/mralexgray/ANTrackBar/notifications{?since,all,participating}
p1186
aVhttps://api.github.com/repos/mralexgray/AOP-in-Objective-C/notifications{?since,all,participating}
p1187
aVhttps://api.github.com/repos/mralexgray/Apaxy/notifications{?since,all,participating}
p1188
aVhttps://api.github.com/repos/mralexgray/app/notifications{?since,all,participating}
p1189
aVhttps://api.github.com/repos/mralexgray/appicns/notifications{?since,all,participating}
p1190
aVhttps://api.github.com/repos/mralexgray/appify/notifications{?since,all,participating}
p1191
a(dp1192
Vfollowing_url
p1193
Vhttps://api.github.com/users/mralexgray/following{/other_user}
p1194
sVgists_url
p1195
Vhttps://api.github.com/users/mralexgray/gists{/gist_id}
p1196
sVorganizations_url
p1197
Vhttps://api.github.com/users/mralexgray/orgs
p1198
sVurl
p1199
Vhttps://api.github.com/users/mralexgray
p1200
sVevents_url
p1201
Vhttps://api.github.com/users/mralexgray/events{/privacy}
p1202
sVhtml_url
p1203
Vhttps://github.com/mralexgray
p1204
sVsubscriptions_url
p1205
Vhttps://api.github.com/users/mralexgray/subscriptions
p1206
sVavatar_url
p1207
Vhttps://avatars.githubusercontent.com/u/262517?v=3
p1208
sVrepos_url
p1209
Vhttps://api.github.com/users/mralexgray/repos
p1210
sVreceived_events_url
p1211
Vhttps://api.github.com/users/mralexgray/received_events
p1212
sVgravatar_id
p1213
g541
sVstarred_url
p1214
Vhttps://api.github.com/users/mralexgray/starred{/owner}{/repo}
p1215
sVsite_admin
p1216
I00
sVlogin
p1217
Vmralexgray
p1218
sVtype
p1219
VUser
p1220
sVid
p1221
I262517
sVfollowers_url
p1222
Vhttps://api.github.com/users/mralexgray/followers
p1223
sa(dp1224
Vfollowing_url
p1225
Vhttps://api.github.com/users/mralexgray/following{/other_user}
p1226
sVgists_url
p1227
Vhttps://api.github.com/users/mralexgray/gists{/gist_id}
p1228
sVorganizations_url
p1229
Vhttps://api.github.com/users/mralexgray/orgs
p1230
sVurl
p1231
Vhttps://api.github.com/users/mralexgray
p1232
sVevents_url
p1233
Vhttps://api.github.com/users/mralexgray/events{/privacy}
p1234
sVhtml_url
p1235
Vhttps://github.com/mralexgray
p1236
sVsubscriptions_url
p1237
Vhttps://api.github.com/users/mralexgray/subscriptions
p1238
sVavatar_url
p1239
Vhttps://avatars.githubusercontent.com/u/262517?v=3
p1240
sVrepos_url
p1241
Vhttps://api.github.com/users/mralexgray/repos
p1242
sVreceived_events_url
p1243
Vhttps://api.github.com/users/mralexgray/received_events
p1244
sVgravatar_id
p1245
g541
sVstarred_url
p1246
Vhttps://api.github.com/users/mralexgray/starred{/owner}{/repo}
p1247
sVsite_admin
p1248
I00
sVlogin
p1249
Vmralexgray
p1250
sVtype
p1251
VUser
p1252
sVid
p1253
I262517
sVfollowers_url
p1254
Vhttps://api.github.com/users/mralexgray/followers
p1255
sa(dp1256
Vfollowing_url
p1257
Vhttps://api.github.com/users/mralexgray/following{/other_user}
p1258
sVgists_url
p1259
Vhttps://api.github.com/users/mralexgray/gists{/gist_id}
p1260
sVorganizations_url
p1261
Vhttps://api.github.com/users/mralexgray/orgs
p1262
sVurl
p1263
Vhttps://api.github.com/users/mralexgray
p1264
sVevents_url
p1265
Vhttps://api.github.com/users/mralexgray/events{/privacy}
p1266
sVhtml_url
p1267
Vhttps://github.com/mralexgray
p1268
sVsubscriptions_url
p1269
Vhttps://api.github.com/users/mralexgray/subscriptions
p1270
sVavatar_url
p1271
Vhttps://avatars.githubusercontent.com/u/262517?v=3
p1272
sVrepos_url
p1273
Vhttps://api.github.com/users/mralexgray/repos
p1274
sVreceived_events_url
p1275
Vhttps://api.github.com/users/mralexgray/received_events
p1276
sVgravatar_id
p1277
g541
sVstarred_url
p1278
Vhttps://api.github.com/users/mralexgray/starred{/owner}{/repo}
p1279
sVsite_admin
p1280
I00
sVlogin
p1281
Vmralexgray
p1282
sVtype
p1283
VUser
p1284
sVid
p1285
I262517
sVfollowers_url
p1286
Vhttps://api.github.com/users/mralexgray/followers
p1287
sa(dp1288
Vfollowing_url
p1289
Vhttps://api.github.com/users/mralexgray/following{/other_user}
p1290
sVgists_url
p1291
Vhttps://api.github.com/users/mralexgray/gists{/gist_id}
p1292
sVorganizations_url
p1293
Vhttps://api.github.com/users/mralexgray/orgs
p1294
sVurl
p1295
Vhttps://api.github.com/users/mralexgray
p1296
sVevents_url
p1297
Vhttps://api.github.com/users/mralexgray/events{/privacy}
p1298
sVhtml_url
p1299
Vhttps://github.com/mralexgray
p1300
sVsubscriptions_url
p1301
Vhttps://api.github.com/users/mralexgray/subscriptions
p1302
sVavatar_url
p1303
Vhttps://avatars.githubusercontent.com/u/262517?v=3
p1304
sVrepos_url
p1305
Vhttps://api.github.com/users/mralexgray/repos
p1306
sVreceived_events_url
p1307
Vhttps://api.github.com/users/mralexgray/received_events
p1308
sVgravatar_id
p1309
g541
sVstarred_url
p1310
Vhttps://api.github.com/users/mralexgray/starred{/owner}{/repo}
p1311
sVsite_admin
p1312
I00
sVlogin
p1313
Vmralexgray
p1314
sVtype
p1315
VUser
p1316
sVid
p1317
I262517
sVfollowers_url
p1318
Vhttps://api.github.com/users/mralexgray/followers
p1319
sa(dp1320
Vfollowing_url
p1321
Vhttps://api.github.com/users/mralexgray/following{/other_user}
p1322
sVgists_url
p1323
Vhttps://api.github.com/users/mralexgray/gists{/gist_id}
p1324
sVorganizations_url
p1325
Vhttps://api.github.com/users/mralexgray/orgs
p1326
sVurl
p1327
Vhttps://api.github.com/users/mralexgray
p1328
sVevents_url
p1329
Vhttps://api.github.com/users/mralexgray/events{/privacy}
p1330
sVhtml_url
p1331
Vhttps://github.com/mralexgray
p1332
sVsubscriptions_url
p1333
Vhttps://api.github.com/users/mralexgray/subscriptions
p1334
sVavatar_url
p1335
Vhttps://avatars.githubusercontent.com/u/262517?v=3
p1336
sVrepos_url
p1337
Vhttps://api.github.com/users/mralexgray/repos
p1338
sVreceived_events_url
p1339
Vhttps://api.github.com/users/mralexgray/received_events
p1340
sVgravatar_id
p1341
g541
sVstarred_url
p1342
Vhttps://api.github.com/users/mralexgray/starred{/owner}{/repo}
p1343
sVsite_admin
p1344
I00
sVlogin
p1345
Vmralexgray
p1346
sVtype
p1347
VUser
p1348
sVid
p1349
I262517
sVfollowers_url
p1350
Vhttps://api.github.com/users/mralexgray/followers
p1351
sa(dp1352
Vfollowing_url
p1353
Vhttps://api.github.com/users/mralexgray/following{/other_user}
p1354
sVgists_url
p1355
Vhttps://api.github.com/users/mralexgray/gists{/gist_id}
p1356
sVorganizations_url
p1357
Vhttps://api.github.com/users/mralexgray/orgs
p1358
sVurl
p1359
Vhttps://api.github.com/users/mralexgray
p1360
sVevents_url
p1361
Vhttps://api.github.com/users/mralexgray/events{/privacy}
p1362
sVhtml_url
p1363
Vhttps://github.com/mralexgray
p1364
sVsubscriptions_url
p1365
Vhttps://api.github.com/users/mralexgray/subscriptions
p1366
sVavatar_url
p1367
Vhttps://avatars.githubusercontent.com/u/262517?v=3
p1368
sVrepos_url
p1369
Vhttps://api.github.com/users/mralexgray/repos
p1370
sVreceived_events_url
p1371
Vhttps://api.github.com/users/mralexgray/received_events
p1372
sVgravatar_id
p1373
g541
sVstarred_url
p1374
Vhttps://api.github.com/users/mralexgray/starred{/owner}{/repo}
p1375
sVsite_admin
p1376
I00
sVlogin
p1377
Vmralexgray
p1378
sVtype
p1379
VUser
p1380
sVid
p1381
I262517
sVfollowers_url
p1382
Vhttps://api.github.com/users/mralexgray/followers
p1383
sa(dp1384
Vfollowing_url
p1385
Vhttps://api.github.com/users/mralexgray/following{/other_user}
p1386
sVgists_url
p1387
Vhttps://api.github.com/users/mralexgray/gists{/gist_id}
p1388
sVorganizations_url
p1389
Vhttps://api.github.com/users/mralexgray/orgs
p1390
sVurl
p1391
Vhttps://api.github.com/users/mralexgray
p1392
sVevents_url
p1393
Vhttps://api.github.com/users/mralexgray/events{/privacy}
p1394
sVhtml_url
p1395
Vhttps://github.com/mralexgray
p1396
sVsubscriptions_url
p1397
Vhttps://api.github.com/users/mralexgray/subscriptions
p1398
sVavatar_url
p1399
Vhttps://avatars.githubusercontent.com/u/262517?v=3
p1400
sVrepos_url
p1401
Vhttps://api.github.com/users/mralexgray/repos
p1402
sVreceived_events_url
p1403
Vhttps://api.github.com/users/mralexgray/received_events
p1404
sVgravatar_id
p1405
g541
sVstarred_url
p1406
Vhttps://api.github.com/users/mralexgray/starred{/owner}{/repo}
p1407
sVsite_admin
p1408
I00
sVlogin
p1409
Vmralexgray
p1410
sVtype
p1411
VUser
p1412
sVid
p1413
I262517
sVfollowers_url
p1414
Vhttps://api.github.com/users/mralexgray/followers
p1415
sa(dp1416
Vfollowing_url
p1417
Vhttps://api.github.com/users/mralexgray/following{/other_user}
p1418
sVgists_url
p1419
Vhttps://api.github.com/users/mralexgray/gists{/gist_id}
p1420
sVorganizations_url
p1421
Vhttps://api.github.com/users/mralexgray/orgs
p1422
sVurl
p1423
Vhttps://api.github.com/users/mralexgray
p1424
sVevents_url
p1425
Vhttps://api.github.com/users/mralexgray/events{/privacy}
p1426
sVhtml_url
p1427
Vhttps://github.com/mralexgray
p1428
sVsubscriptions_url
p1429
Vhttps://api.github.com/users/mralexgray/subscriptions
p1430
sVavatar_url
p1431
Vhttps://avatars.githubusercontent.com/u/262517?v=3
p1432
sVrepos_url
p1433
Vhttps://api.github.com/users/mralexgray/repos
p1434
sVreceived_events_url
p1435
Vhttps://api.github.com/users/mralexgray/received_events
p1436
sVgravatar_id
p1437
g541
sVstarred_url
p1438
Vhttps://api.github.com/users/mralexgray/starred{/owner}{/repo}
p1439
sVsite_admin
p1440
I00
sVlogin
p1441
Vmralexgray
p1442
sVtype
p1443
VUser
p1444
sVid
p1445
I262517
sVfollowers_url
p1446
Vhttps://api.github.com/users/mralexgray/followers
p1447
sa(dp1448
Vfollowing_url
p1449
Vhttps://api.github.com/users/mralexgray/following{/other_user}
p1450
sVgists_url
p1451
Vhttps://api.github.com/users/mralexgray/gists{/gist_id}
p1452
sVorganizations_url
p1453
Vhttps://api.github.com/users/mralexgray/orgs
p1454
sVurl
p1455
Vhttps://api.github.com/users/mralexgray
p1456
sVevents_url
p1457
Vhttps://api.github.com/users/mralexgray/events{/privacy}
p1458
sVhtml_url
p1459
Vhttps://github.com/mralexgray
p1460
sVsubscriptions_url
p1461
Vhttps://api.github.com/users/mralexgray/subscriptions
p1462
sVavatar_url
p1463
Vhttps://avatars.githubusercontent.com/u/262517?v=3
p1464
sVrepos_url
p1465
Vhttps://api.github.com/users/mralexgray/repos
p1466
sVreceived_events_url
p1467
Vhttps://api.github.com/users/mralexgray/received_events
p1468
sVgravatar_id
p1469
g541
sVstarred_url
p1470
Vhttps://api.github.com/users/mralexgray/starred{/owner}{/repo}
p1471
sVsite_admin
p1472
I00
sVlogin
p1473
Vmralexgray
p1474
sVtype
p1475
VUser
p1476
sVid
p1477
I262517
sVfollowers_url
p1478
Vhttps://api.github.com/users/mralexgray/followers
p1479
sa(dp1480
Vfollowing_url
p1481
Vhttps://api.github.com/users/mralexgray/following{/other_user}
p1482
sVgists_url
p1483
Vhttps://api.github.com/users/mralexgray/gists{/gist_id}
p1484
sVorganizations_url
p1485
Vhttps://api.github.com/users/mralexgray/orgs
p1486
sVurl
p1487
Vhttps://api.github.com/users/mralexgray
p1488
sVevents_url
p1489
Vhttps://api.github.com/users/mralexgray/events{/privacy}
p1490
sVhtml_url
p1491
Vhttps://github.com/mralexgray
p1492
sVsubscriptions_url
p1493
Vhttps://api.github.com/users/mralexgray/subscriptions
p1494
sVavatar_url
p1495
Vhttps://avatars.githubusercontent.com/u/262517?v=3
p1496
sVrepos_url
p1497
Vhttps://api.github.com/users/mralexgray/repos
p1498
sVreceived_events_url
p1499
Vhttps://api.github.com/users/mralexgray/received_events
p1500
sVgravatar_id
p1501
g541
sVstarred_url
p1502
Vhttps://api.github.com/users/mralexgray/starred{/owner}{/repo}
p1503
sVsite_admin
p1504
I00
sVlogin
p1505
Vmralexgray
p1506
sVtype
p1507
VUser
p1508
sVid
p1509
I262517
sVfollowers_url
p1510
Vhttps://api.github.com/users/mralexgray/followers
p1511
sa(dp1512
Vfollowing_url
p1513
Vhttps://api.github.com/users/mralexgray/following{/other_user}
p1514
sVgists_url
p1515
Vhttps://api.github.com/users/mralexgray/gists{/gist_id}
p1516
sVorganizations_url
p1517
Vhttps://api.github.com/users/mralexgray/orgs
p1518
sVurl
p1519
Vhttps://api.github.com/users/mralexgray
p1520
sVevents_url
p1521
Vhttps://api.github.com/users/mralexgray/events{/privacy}
p1522
sVhtml_url
p1523
Vhttps://github.com/mralexgray
p1524
sVsubscriptions_url
p1525
Vhttps://api.github.com/users/mralexgray/subscriptions
p1526
sVavatar_url
p1527
Vhttps://avatars.githubusercontent.com/u/262517?v=3
p1528
sVrepos_url
p1529
Vhttps://api.github.com/users/mralexgray/repos
p1530
sVreceived_events_url
p1531
Vhttps://api.github.com/users/mralexgray/received_events
p1532
sVgravatar_id
p1533
g541
sVstarred_url
p1534
Vhttps://api.github.com/users/mralexgray/starred{/owner}{/repo}
p1535
sVsite_admin
p1536
I00
sVlogin
p1537
Vmralexgray
p1538
sVtype
p1539
VUser
p1540
sVid
p1541
I262517
sVfollowers_url
p1542
Vhttps://api.github.com/users/mralexgray/followers
p1543
sa(dp1544
Vfollowing_url
p1545
Vhttps://api.github.com/users/mralexgray/following{/other_user}
p1546
sVgists_url
p1547
Vhttps://api.github.com/users/mralexgray/gists{/gist_id}
p1548
sVorganizations_url
p1549
Vhttps://api.github.com/users/mralexgray/orgs
p1550
sVurl
p1551
Vhttps://api.github.com/users/mralexgray
p1552
sVevents_url
p1553
Vhttps://api.github.com/users/mralexgray/events{/privacy}
p1554
sVhtml_url
p1555
Vhttps://github.com/mralexgray
p1556
sVsubscriptions_url
p1557
Vhttps://api.github.com/users/mralexgray/subscriptions
p1558
sVavatar_url
p1559
Vhttps://avatars.githubusercontent.com/u/262517?v=3
p1560
sVrepos_url
p1561
Vhttps://api.github.com/users/mralexgray/repos
p1562
sVreceived_events_url
p1563
Vhttps://api.github.com/users/mralexgray/received_events
p1564
sVgravatar_id
p1565
g541
sVstarred_url
p1566
Vhttps://api.github.com/users/mralexgray/starred{/owner}{/repo}
p1567
sVsite_admin
p1568
I00
sVlogin
p1569
Vmralexgray
p1570
sVtype
p1571
VUser
p1572
sVid
p1573
I262517
sVfollowers_url
p1574
Vhttps://api.github.com/users/mralexgray/followers
p1575
sa(dp1576
Vfollowing_url
p1577
Vhttps://api.github.com/users/mralexgray/following{/other_user}
p1578
sVgists_url
p1579
Vhttps://api.github.com/users/mralexgray/gists{/gist_id}
p1580
sVorganizations_url
p1581
Vhttps://api.github.com/users/mralexgray/orgs
p1582
sVurl
p1583
Vhttps://api.github.com/users/mralexgray
p1584
sVevents_url
p1585
Vhttps://api.github.com/users/mralexgray/events{/privacy}
p1586
sVhtml_url
p1587
Vhttps://github.com/mralexgray
p1588
sVsubscriptions_url
p1589
Vhttps://api.github.com/users/mralexgray/subscriptions
p1590
sVavatar_url
p1591
Vhttps://avatars.githubusercontent.com/u/262517?v=3
p1592
sVrepos_url
p1593
Vhttps://api.github.com/users/mralexgray/repos
p1594
sVreceived_events_url
p1595
Vhttps://api.github.com/users/mralexgray/received_events
p1596
sVgravatar_id
p1597
g541
sVstarred_url
p1598
Vhttps://api.github.com/users/mralexgray/starred{/owner}{/repo}
p1599
sVsite_admin
p1600
I00
sVlogin
p1601
Vmralexgray
p1602
sVtype
p1603
VUser
p1604
sVid
p1605
I262517
sVfollowers_url
p1606
Vhttps://api.github.com/users/mralexgray/followers
p1607
sa(dp1608
Vfollowing_url
p1609
Vhttps://api.github.com/users/mralexgray/following{/other_user}
p1610
sVgists_url
p1611
Vhttps://api.github.com/users/mralexgray/gists{/gist_id}
p1612
sVorganizations_url
p1613
Vhttps://api.github.com/users/mralexgray/orgs
p1614
sVurl
p1615
Vhttps://api.github.com/users/mralexgray
p1616
sVevents_url
p1617
Vhttps://api.github.com/users/mralexgray/events{/privacy}
p1618
sVhtml_url
p1619
Vhttps://github.com/mralexgray
p1620
sVsubscriptions_url
p1621
Vhttps://api.github.com/users/mralexgray/subscriptions
p1622
sVavatar_url
p1623
Vhttps://avatars.githubusercontent.com/u/262517?v=3
p1624
sVrepos_url
p1625
Vhttps://api.github.com/users/mralexgray/repos
p1626
sVreceived_events_url
p1627
Vhttps://api.github.com/users/mralexgray/received_events
p1628
sVgravatar_id
p1629
g541
sVstarred_url
p1630
Vhttps://api.github.com/users/mralexgray/starred{/owner}{/repo}
p1631
sVsite_admin
p1632
I00
sVlogin
p1633
Vmralexgray
p1634
sVtype
p1635
VUser
p1636
sVid
p1637
I262517
sVfollowers_url
p1638
Vhttps://api.github.com/users/mralexgray/followers
p1639
sa(dp1640
Vfollowing_url
p1641
Vhttps://api.github.com/users/mralexgray/following{/other_user}
p1642
sVgists_url
p1643
Vhttps://api.github.com/users/mralexgray/gists{/gist_id}
p1644
sVorganizations_url
p1645
Vhttps://api.github.com/users/mralexgray/orgs
p1646
sVurl
p1647
Vhttps://api.github.com/users/mralexgray
p1648
sVevents_url
p1649
Vhttps://api.github.com/users/mralexgray/events{/privacy}
p1650
sVhtml_url
p1651
Vhttps://github.com/mralexgray
p1652
sVsubscriptions_url
p1653
Vhttps://api.github.com/users/mralexgray/subscriptions
p1654
sVavatar_url
p1655
Vhttps://avatars.githubusercontent.com/u/262517?v=3
p1656
sVrepos_url
p1657
Vhttps://api.github.com/users/mralexgray/repos
p1658
sVreceived_events_url
p1659
Vhttps://api.github.com/users/mralexgray/received_events
p1660
sVgravatar_id
p1661
g541
sVstarred_url
p1662
Vhttps://api.github.com/users/mralexgray/starred{/owner}{/repo}
p1663
sVsite_admin
p1664
I00
sVlogin
p1665
Vmralexgray
p1666
sVtype
p1667
VUser
p1668
sVid
p1669
I262517
sVfollowers_url
p1670
Vhttps://api.github.com/users/mralexgray/followers
p1671
sa(dp1672
Vfollowing_url
p1673
Vhttps://api.github.com/users/mralexgray/following{/other_user}
p1674
sVgists_url
p1675
Vhttps://api.github.com/users/mralexgray/gists{/gist_id}
p1676
sVorganizations_url
p1677
Vhttps://api.github.com/users/mralexgray/orgs
p1678
sVurl
p1679
Vhttps://api.github.com/users/mralexgray
p1680
sVevents_url
p1681
Vhttps://api.github.com/users/mralexgray/events{/privacy}
p1682
sVhtml_url
p1683
Vhttps://github.com/mralexgray
p1684
sVsubscriptions_url
p1685
Vhttps://api.github.com/users/mralexgray/subscriptions
p1686
sVavatar_url
p1687
Vhttps://avatars.githubusercontent.com/u/262517?v=3
p1688
sVrepos_url
p1689
Vhttps://api.github.com/users/mralexgray/repos
p1690
sVreceived_events_url
p1691
Vhttps://api.github.com/users/mralexgray/received_events
p1692
sVgravatar_id
p1693
g541
sVstarred_url
p1694
Vhttps://api.github.com/users/mralexgray/starred{/owner}{/repo}
p1695
sVsite_admin
p1696
I00
sVlogin
p1697
Vmralexgray
p1698
sVtype
p1699
VUser
p1700
sVid
p1701
I262517
sVfollowers_url
p1702
Vhttps://api.github.com/users/mralexgray/followers
p1703
sa(dp1704
Vfollowing_url
p1705
Vhttps://api.github.com/users/mralexgray/following{/other_user}
p1706
sVgists_url
p1707
Vhttps://api.github.com/users/mralexgray/gists{/gist_id}
p1708
sVorganizations_url
p1709
Vhttps://api.github.com/users/mralexgray/orgs
p1710
sVurl
p1711
Vhttps://api.github.com/users/mralexgray
p1712
sVevents_url
p1713
Vhttps://api.github.com/users/mralexgray/events{/privacy}
p1714
sVhtml_url
p1715
Vhttps://github.com/mralexgray
p1716
sVsubscriptions_url
p1717
Vhttps://api.github.com/users/mralexgray/subscriptions
p1718
sVavatar_url
p1719
Vhttps://avatars.githubusercontent.com/u/262517?v=3
p1720
sVrepos_url
p1721
Vhttps://api.github.com/users/mralexgray/repos
p1722
sVreceived_events_url
p1723
Vhttps://api.github.com/users/mralexgray/received_events
p1724
sVgravatar_id
p1725
g541
sVstarred_url
p1726
Vhttps://api.github.com/users/mralexgray/starred{/owner}{/repo}
p1727
sVsite_admin
p1728
I00
sVlogin
p1729
Vmralexgray
p1730
sVtype
p1731
VUser
p1732
sVid
p1733
I262517
sVfollowers_url
p1734
Vhttps://api.github.com/users/mralexgray/followers
p1735
sa(dp1736
Vfollowing_url
p1737
Vhttps://api.github.com/users/mralexgray/following{/other_user}
p1738
sVgists_url
p1739
Vhttps://api.github.com/users/mralexgray/gists{/gist_id}
p1740
sVorganizations_url
p1741
Vhttps://api.github.com/users/mralexgray/orgs
p1742
sVurl
p1743
Vhttps://api.github.com/users/mralexgray
p1744
sVevents_url
p1745
Vhttps://api.github.com/users/mralexgray/events{/privacy}
p1746
sVhtml_url
p1747
Vhttps://github.com/mralexgray
p1748
sVsubscriptions_url
p1749
Vhttps://api.github.com/users/mralexgray/subscriptions
p1750
sVavatar_url
p1751
Vhttps://avatars.githubusercontent.com/u/262517?v=3
p1752
sVrepos_url
p1753
Vhttps://api.github.com/users/mralexgray/repos
p1754
sVreceived_events_url
p1755
Vhttps://api.github.com/users/mralexgray/received_events
p1756
sVgravatar_id
p1757
g541
sVstarred_url
p1758
Vhttps://api.github.com/users/mralexgray/starred{/owner}{/repo}
p1759
sVsite_admin
p1760
I00
sVlogin
p1761
Vmralexgray
p1762
sVtype
p1763
VUser
p1764
sVid
p1765
I262517
sVfollowers_url
p1766
Vhttps://api.github.com/users/mralexgray/followers
p1767
sa(dp1768
Vfollowing_url
p1769
Vhttps://api.github.com/users/mralexgray/following{/other_user}
p1770
sVgists_url
p1771
Vhttps://api.github.com/users/mralexgray/gists{/gist_id}
p1772
sVorganizations_url
p1773
Vhttps://api.github.com/users/mralexgray/orgs
p1774
sVurl
p1775
Vhttps://api.github.com/users/mralexgray
p1776
sVevents_url
p1777
Vhttps://api.github.com/users/mralexgray/events{/privacy}
p1778
sVhtml_url
p1779
Vhttps://github.com/mralexgray
p1780
sVsubscriptions_url
p1781
Vhttps://api.github.com/users/mralexgray/subscriptions
p1782
sVavatar_url
p1783
Vhttps://avatars.githubusercontent.com/u/262517?v=3
p1784
sVrepos_url
p1785
Vhttps://api.github.com/users/mralexgray/repos
p1786
sVreceived_events_url
p1787
Vhttps://api.github.com/users/mralexgray/received_events
p1788
sVgravatar_id
p1789
g541
sVstarred_url
p1790
Vhttps://api.github.com/users/mralexgray/starred{/owner}{/repo}
p1791
sVsite_admin
p1792
I00
sVlogin
p1793
Vmralexgray
p1794
sVtype
p1795
VUser
p1796
sVid
p1797
I262517
sVfollowers_url
p1798
Vhttps://api.github.com/users/mralexgray/followers
p1799
sa(dp1800
Vfollowing_url
p1801
Vhttps://api.github.com/users/mralexgray/following{/other_user}
p1802
sVgists_url
p1803
Vhttps://api.github.com/users/mralexgray/gists{/gist_id}
p1804
sVorganizations_url
p1805
Vhttps://api.github.com/users/mralexgray/orgs
p1806
sVurl
p1807
Vhttps://api.github.com/users/mralexgray
p1808
sVevents_url
p1809
Vhttps://api.github.com/users/mralexgray/events{/privacy}
p1810
sVhtml_url
p1811
Vhttps://github.com/mralexgray
p1812
sVsubscriptions_url
p1813
Vhttps://api.github.com/users/mralexgray/subscriptions
p1814
sVavatar_url
p1815
Vhttps://avatars.githubusercontent.com/u/262517?v=3
p1816
sVrepos_url
p1817
Vhttps://api.github.com/users/mralexgray/repos
p1818
sVreceived_events_url
p1819
Vhttps://api.github.com/users/mralexgray/received_events
p1820
sVgravatar_id
p1821
g541
sVstarred_url
p1822
Vhttps://api.github.com/users/mralexgray/starred{/owner}{/repo}
p1823
sVsite_admin
p1824
I00
sVlogin
p1825
Vmralexgray
p1826
sVtype
p1827
VUser
p1828
sVid
p1829
I262517
sVfollowers_url
p1830
Vhttps://api.github.com/users/mralexgray/followers
p1831
sa(dp1832
Vfollowing_url
p1833
Vhttps://api.github.com/users/mralexgray/following{/other_user}
p1834
sVgists_url
p1835
Vhttps://api.github.com/users/mralexgray/gists{/gist_id}
p1836
sVorganizations_url
p1837
Vhttps://api.github.com/users/mralexgray/orgs
p1838
sVurl
p1839
Vhttps://api.github.com/users/mralexgray
p1840
sVevents_url
p1841
Vhttps://api.github.com/users/mralexgray/events{/privacy}
p1842
sVhtml_url
p1843
Vhttps://github.com/mralexgray
p1844
sVsubscriptions_url
p1845
Vhttps://api.github.com/users/mralexgray/subscriptions
p1846
sVavatar_url
p1847
Vhttps://avatars.githubusercontent.com/u/262517?v=3
p1848
sVrepos_url
p1849
Vhttps://api.github.com/users/mralexgray/repos
p1850
sVreceived_events_url
p1851
Vhttps://api.github.com/users/mralexgray/received_events
p1852
sVgravatar_id
p1853
g541
sVstarred_url
p1854
Vhttps://api.github.com/users/mralexgray/starred{/owner}{/repo}
p1855
sVsite_admin
p1856
I00
sVlogin
p1857
Vmralexgray
p1858
sVtype
p1859
VUser
p1860
sVid
p1861
I262517
sVfollowers_url
p1862
Vhttps://api.github.com/users/mralexgray/followers
p1863
sa(dp1864
Vfollowing_url
p1865
Vhttps://api.github.com/users/mralexgray/following{/other_user}
p1866
sVgists_url
p1867
Vhttps://api.github.com/users/mralexgray/gists{/gist_id}
p1868
sVorganizations_url
p1869
Vhttps://api.github.com/users/mralexgray/orgs
p1870
sVurl
p1871
Vhttps://api.github.com/users/mralexgray
p1872
sVevents_url
p1873
Vhttps://api.github.com/users/mralexgray/events{/privacy}
p1874
sVhtml_url
p1875
Vhttps://github.com/mralexgray
p1876
sVsubscriptions_url
p1877
Vhttps://api.github.com/users/mralexgray/subscriptions
p1878
sVavatar_url
p1879
Vhttps://avatars.githubusercontent.com/u/262517?v=3
p1880
sVrepos_url
p1881
Vhttps://api.github.com/users/mralexgray/repos
p1882
sVreceived_events_url
p1883
Vhttps://api.github.com/users/mralexgray/received_events
p1884
sVgravatar_id
p1885
g541
sVstarred_url
p1886
Vhttps://api.github.com/users/mralexgray/starred{/owner}{/repo}
p1887
sVsite_admin
p1888
I00
sVlogin
p1889
Vmralexgray
p1890
sVtype
p1891
VUser
p1892
sVid
p1893
I262517
sVfollowers_url
p1894
Vhttps://api.github.com/users/mralexgray/followers
p1895
sa(dp1896
Vfollowing_url
p1897
Vhttps://api.github.com/users/mralexgray/following{/other_user}
p1898
sVgists_url
p1899
Vhttps://api.github.com/users/mralexgray/gists{/gist_id}
p1900
sVorganizations_url
p1901
Vhttps://api.github.com/users/mralexgray/orgs
p1902
sVurl
p1903
Vhttps://api.github.com/users/mralexgray
p1904
sVevents_url
p1905
Vhttps://api.github.com/users/mralexgray/events{/privacy}
p1906
sVhtml_url
p1907
Vhttps://github.com/mralexgray
p1908
sVsubscriptions_url
p1909
Vhttps://api.github.com/users/mralexgray/subscriptions
p1910
sVavatar_url
p1911
Vhttps://avatars.githubusercontent.com/u/262517?v=3
p1912
sVrepos_url
p1913
Vhttps://api.github.com/users/mralexgray/repos
p1914
sVreceived_events_url
p1915
Vhttps://api.github.com/users/mralexgray/received_events
p1916
sVgravatar_id
p1917
g541
sVstarred_url
p1918
Vhttps://api.github.com/users/mralexgray/starred{/owner}{/repo}
p1919
sVsite_admin
p1920
I00
sVlogin
p1921
Vmralexgray
p1922
sVtype
p1923
VUser
p1924
sVid
p1925
I262517
sVfollowers_url
p1926
Vhttps://api.github.com/users/mralexgray/followers
p1927
sa(dp1928
Vfollowing_url
p1929
Vhttps://api.github.com/users/mralexgray/following{/other_user}
p1930
sVgists_url
p1931
Vhttps://api.github.com/users/mralexgray/gists{/gist_id}
p1932
sVorganizations_url
p1933
Vhttps://api.github.com/users/mralexgray/orgs
p1934
sVurl
p1935
Vhttps://api.github.com/users/mralexgray
p1936
sVevents_url
p1937
Vhttps://api.github.com/users/mralexgray/events{/privacy}
p1938
sVhtml_url
p1939
Vhttps://github.com/mralexgray
p1940
sVsubscriptions_url
p1941
Vhttps://api.github.com/users/mralexgray/subscriptions
p1942
sVavatar_url
p1943
Vhttps://avatars.githubusercontent.com/u/262517?v=3
p1944
sVrepos_url
p1945
Vhttps://api.github.com/users/mralexgray/repos
p1946
sVreceived_events_url
p1947
Vhttps://api.github.com/users/mralexgray/received_events
p1948
sVgravatar_id
p1949
g541
sVstarred_url
p1950
Vhttps://api.github.com/users/mralexgray/starred{/owner}{/repo}
p1951
sVsite_admin
p1952
I00
sVlogin
p1953
Vmralexgray
p1954
sVtype
p1955
VUser
p1956
sVid
p1957
I262517
sVfollowers_url
p1958
Vhttps://api.github.com/users/mralexgray/followers
p1959
sa(dp1960
Vfollowing_url
p1961
Vhttps://api.github.com/users/mralexgray/following{/other_user}
p1962
sVgists_url
p1963
Vhttps://api.github.com/users/mralexgray/gists{/gist_id}
p1964
sVorganizations_url
p1965
Vhttps://api.github.com/users/mralexgray/orgs
p1966
sVurl
p1967
Vhttps://api.github.com/users/mralexgray
p1968
sVevents_url
p1969
Vhttps://api.github.com/users/mralexgray/events{/privacy}
p1970
sVhtml_url
p1971
Vhttps://github.com/mralexgray
p1972
sVsubscriptions_url
p1973
Vhttps://api.github.com/users/mralexgray/subscriptions
p1974
sVavatar_url
p1975
Vhttps://avatars.githubusercontent.com/u/262517?v=3
p1976
sVrepos_url
p1977
Vhttps://api.github.com/users/mralexgray/repos
p1978
sVreceived_events_url
p1979
Vhttps://api.github.com/users/mralexgray/received_events
p1980
sVgravatar_id
p1981
g541
sVstarred_url
p1982
Vhttps://api.github.com/users/mralexgray/starred{/owner}{/repo}
p1983
sVsite_admin
p1984
I00
sVlogin
p1985
Vmralexgray
p1986
sVtype
p1987
VUser
p1988
sVid
p1989
I262517
sVfollowers_url
p1990
Vhttps://api.github.com/users/mralexgray/followers
p1991
sa(dp1992
Vfollowing_url
p1993
Vhttps://api.github.com/users/mralexgray/following{/other_user}
p1994
sVgists_url
p1995
Vhttps://api.github.com/users/mralexgray/gists{/gist_id}
p1996
sVorganizations_url
p1997
Vhttps://api.github.com/users/mralexgray/orgs
p1998
sVurl
p1999
Vhttps://api.github.com/users/mralexgray
p2000
sVevents_url
p2001
Vhttps://api.github.com/users/mralexgray/events{/privacy}
p2002
sVhtml_url
p2003
Vhttps://github.com/mralexgray
p2004
sVsubscriptions_url
p2005
Vhttps://api.github.com/users/mralexgray/subscriptions
p2006
sVavatar_url
p2007
Vhttps://avatars.githubusercontent.com/u/262517?v=3
p2008
sVrepos_url
p2009
Vhttps://api.github.com/users/mralexgray/repos
p2010
sVreceived_events_url
p2011
Vhttps://api.github.com/users/mralexgray/received_events
p2012
sVgravatar_id
p2013
g541
sVstarred_url
p2014
Vhttps://api.github.com/users/mralexgray/starred{/owner}{/repo}
p2015
sVsite_admin
p2016
I00
sVlogin
p2017
Vmralexgray
p2018
sVtype
p2019
VUser
p2020
sVid
p2021
I262517
sVfollowers_url
p2022
Vhttps://api.github.com/users/mralexgray/followers
p2023
sa(dp2024
Vfollowing_url
p2025
Vhttps://api.github.com/users/mralexgray/following{/other_user}
p2026
sVgists_url
p2027
Vhttps://api.github.com/users/mralexgray/gists{/gist_id}
p2028
sVorganizations_url
p2029
Vhttps://api.github.com/users/mralexgray/orgs
p2030
sVurl
p2031
Vhttps://api.github.com/users/mralexgray
p2032
sVevents_url
p2033
Vhttps://api.github.com/users/mralexgray/events{/privacy}
p2034
sVhtml_url
p2035
Vhttps://github.com/mralexgray
p2036
sVsubscriptions_url
p2037
Vhttps://api.github.com/users/mralexgray/subscriptions
p2038
sVavatar_url
p2039
Vhttps://avatars.githubusercontent.com/u/262517?v=3
p2040
sVrepos_url
p2041
Vhttps://api.github.com/users/mralexgray/repos
p2042
sVreceived_events_url
p2043
Vhttps://api.github.com/users/mralexgray/received_events
p2044
sVgravatar_id
p2045
g541
sVstarred_url
p2046
Vhttps://api.github.com/users/mralexgray/starred{/owner}{/repo}
p2047
sVsite_admin
p2048
I00
sVlogin
p2049
Vmralexgray
p2050
sVtype
p2051
VUser
p2052
sVid
p2053
I262517
sVfollowers_url
p2054
Vhttps://api.github.com/users/mralexgray/followers
p2055
sa(dp2056
Vfollowing_url
p2057
Vhttps://api.github.com/users/mralexgray/following{/other_user}
p2058
sVgists_url
p2059
Vhttps://api.github.com/users/mralexgray/gists{/gist_id}
p2060
sVorganizations_url
p2061
Vhttps://api.github.com/users/mralexgray/orgs
p2062
sVurl
p2063
Vhttps://api.github.com/users/mralexgray
p2064
sVevents_url
p2065
Vhttps://api.github.com/users/mralexgray/events{/privacy}
p2066
sVhtml_url
p2067
Vhttps://github.com/mralexgray
p2068
sVsubscriptions_url
p2069
Vhttps://api.github.com/users/mralexgray/subscriptions
p2070
sVavatar_url
p2071
Vhttps://avatars.githubusercontent.com/u/262517?v=3
p2072
sVrepos_url
p2073
Vhttps://api.github.com/users/mralexgray/repos
p2074
sVreceived_events_url
p2075
Vhttps://api.github.com/users/mralexgray/received_events
p2076
sVgravatar_id
p2077
g541
sVstarred_url
p2078
Vhttps://api.github.com/users/mralexgray/starred{/owner}{/repo}
p2079
sVsite_admin
p2080
I00
sVlogin
p2081
Vmralexgray
p2082
sVtype
p2083
VUser
p2084
sVid
p2085
I262517
sVfollowers_url
p2086
Vhttps://api.github.com/users/mralexgray/followers
p2087
sa(dp2088
Vfollowing_url
p2089
Vhttps://api.github.com/users/mralexgray/following{/other_user}
p2090
sVgists_url
p2091
Vhttps://api.github.com/users/mralexgray/gists{/gist_id}
p2092
sVorganizations_url
p2093
Vhttps://api.github.com/users/mralexgray/orgs
p2094
sVurl
p2095
Vhttps://api.github.com/users/mralexgray
p2096
sVevents_url
p2097
Vhttps://api.github.com/users/mralexgray/events{/privacy}
p2098
sVhtml_url
p2099
Vhttps://github.com/mralexgray
p2100
sVsubscriptions_url
p2101
Vhttps://api.github.com/users/mralexgray/subscriptions
p2102
sVavatar_url
p2103
Vhttps://avatars.githubusercontent.com/u/262517?v=3
p2104
sVrepos_url
p2105
Vhttps://api.github.com/users/mralexgray/repos
p2106
sVreceived_events_url
p2107
Vhttps://api.github.com/users/mralexgray/received_events
p2108
sVgravatar_id
p2109
g541
sVstarred_url
p2110
Vhttps://api.github.com/users/mralexgray/starred{/owner}{/repo}
p2111
sVsite_admin
p2112
I00
sVlogin
p2113
Vmralexgray
p2114
sVtype
p2115
VUser
p2116
sVid
p2117
I262517
sVfollowers_url
p2118
Vhttps://api.github.com/users/mralexgray/followers
p2119
sa(dp2120
Vfollowing_url
p2121
Vhttps://api.github.com/users/mralexgray/following{/other_user}
p2122
sVgists_url
p2123
Vhttps://api.github.com/users/mralexgray/gists{/gist_id}
p2124
sVorganizations_url
p2125
Vhttps://api.github.com/users/mralexgray/orgs
p2126
sVurl
p2127
Vhttps://api.github.com/users/mralexgray
p2128
sVevents_url
p2129
Vhttps://api.github.com/users/mralexgray/events{/privacy}
p2130
sVhtml_url
p2131
Vhttps://github.com/mralexgray
p2132
sVsubscriptions_url
p2133
Vhttps://api.github.com/users/mralexgray/subscriptions
p2134
sVavatar_url
p2135
Vhttps://avatars.githubusercontent.com/u/262517?v=3
p2136
sVrepos_url
p2137
Vhttps://api.github.com/users/mralexgray/repos
p2138
sVreceived_events_url
p2139
Vhttps://api.github.com/users/mralexgray/received_events
p2140
sVgravatar_id
p2141
g541
sVstarred_url
p2142
Vhttps://api.github.com/users/mralexgray/starred{/owner}{/repo}
p2143
sVsite_admin
p2144
I00
sVlogin
p2145
Vmralexgray
p2146
sVtype
p2147
VUser
p2148
sVid
p2149
I262517
sVfollowers_url
p2150
Vhttps://api.github.com/users/mralexgray/followers
p2151
saVhttps://api.github.com/repos/mralexgray/-REPONAME/pulls{/number}
p2152
aVhttps://api.github.com/repos/mralexgray/ace/pulls{/number}
p2153
aVhttps://api.github.com/repos/mralexgray/ACEView/pulls{/number}
p2154
aVhttps://api.github.com/repos/mralexgray/ActiveLog/pulls{/number}
p2155
aVhttps://api.github.com/repos/mralexgray/adium/pulls{/number}
p2156
aVhttps://api.github.com/repos/mralexgray/ADLivelyTableView/pulls{/number}
p2157
aVhttps://api.github.com/repos/mralexgray/AFIncrementalStore/pulls{/number}
p2158
aVhttps://api.github.com/repos/mralexgray/AFNetworking/pulls{/number}
p2159
aVhttps://api.github.com/repos/mralexgray/AGNSSplitView/pulls{/number}
p2160
aVhttps://api.github.com/repos/mralexgray/AGScopeBar/pulls{/number}
p2161
aVhttps://api.github.com/repos/mralexgray/agvtool-xcode-plugin/pulls{/number}
p2162
aVhttps://api.github.com/repos/mralexgray/AHContentBrowser/pulls{/number}
p2163
aVhttps://api.github.com/repos/mralexgray/AHLaunchCtl/pulls{/number}
p2164
aVhttps://api.github.com/repos/mralexgray/AHLayout/pulls{/number}
p2165
aVhttps://api.github.com/repos/mralexgray/Airmail-Plug-In-Framework/pulls{/number}
p2166
aVhttps://api.github.com/repos/mralexgray/AJS-iTunes-API/pulls{/number}
p2167
aVhttps://api.github.com/repos/mralexgray/Alcatraz/pulls{/number}
p2168
aVhttps://api.github.com/repos/mralexgray/alcatraz-packages/pulls{/number}
p2169
aVhttps://api.github.com/repos/mralexgray/alexicons/pulls{/number}
p2170
aVhttps://api.github.com/repos/mralexgray/Alfred-Google-Translate/pulls{/number}
p2171
aVhttps://api.github.com/repos/mralexgray/Amber/pulls{/number}
p2172
aVhttps://api.github.com/repos/mralexgray/Amethyst/pulls{/number}
p2173
aVhttps://api.github.com/repos/mralexgray/Animated-Paths/pulls{/number}
p2174
aVhttps://api.github.com/repos/mralexgray/AnsiLove.framework/pulls{/number}
p2175
aVhttps://api.github.com/repos/mralexgray/ANTrackBar/pulls{/number}
p2176
aVhttps://api.github.com/repos/mralexgray/AOP-in-Objective-C/pulls{/number}
p2177
aVhttps://api.github.com/repos/mralexgray/Apaxy/pulls{/number}
p2178
aVhttps://api.github.com/repos/mralexgray/app/pulls{/number}
p2179
aVhttps://api.github.com/repos/mralexgray/appicns/pulls{/number}
p2180
aVhttps://api.github.com/repos/mralexgray/appify/pulls{/number}
p2181
aVhttps://api.github.com/repos/mralexgray/-REPONAME/releases{/id}
p2182
aVhttps://api.github.com/repos/mralexgray/ace/releases{/id}
p2183
aVhttps://api.github.com/repos/mralexgray/ACEView/releases{/id}
p2184
aVhttps://api.github.com/repos/mralexgray/ActiveLog/releases{/id}
p2185
aVhttps://api.github.com/repos/mralexgray/adium/releases{/id}
p2186
aVhttps://api.github.com/repos/mralexgray/ADLivelyTableView/releases{/id}
p2187
aVhttps://api.github.com/repos/mralexgray/AFIncrementalStore/releases{/id}
p2188
aVhttps://api.github.com/repos/mralexgray/AFNetworking/releases{/id}
p2189
aVhttps://api.github.com/repos/mralexgray/AGNSSplitView/releases{/id}
p2190
aVhttps://api.github.com/repos/mralexgray/AGScopeBar/releases{/id}
p2191
aVhttps://api.github.com/repos/mralexgray/agvtool-xcode-plugin/releases{/id}
p2192
aVhttps://api.github.com/repos/mralexgray/AHContentBrowser/releases{/id}
p2193
aVhttps://api.github.com/repos/mralexgray/AHLaunchCtl/releases{/id}
p2194
aVhttps://api.github.com/repos/mralexgray/AHLayout/releases{/id}
p2195
aVhttps://api.github.com/repos/mralexgray/Airmail-Plug-In-Framework/releases{/id}
p2196
aVhttps://api.github.com/repos/mralexgray/AJS-iTunes-API/releases{/id}
p2197
aVhttps://api.github.com/repos/mralexgray/Alcatraz/releases{/id}
p2198
aVhttps://api.github.com/repos/mralexgray/alcatraz-packages/releases{/id}
p2199
aVhttps://api.github.com/repos/mralexgray/alexicons/releases{/id}
p2200
aVhttps://api.github.com/repos/mralexgray/Alfred-Google-Translate/releases{/id}
p2201
aVhttps://api.github.com/repos/mralexgray/Amber/releases{/id}
p2202
aVhttps://api.github.com/repos/mralexgray/Amethyst/releases{/id}
p2203
aVhttps://api.github.com/repos/mralexgray/Animated-Paths/releases{/id}
p2204
aVhttps://api.github.com/repos/mralexgray/AnsiLove.framework/releases{/id}
p2205
aVhttps://api.github.com/repos/mralexgray/ANTrackBar/releases{/id}
p2206
aVhttps://api.github.com/repos/mralexgray/AOP-in-Objective-C/releases{/id}
p2207
aVhttps://api.github.com/repos/mralexgray/Apaxy/releases{/id}
p2208
aVhttps://api.github.com/repos/mralexgray/app/releases{/id}
p2209
aVhttps://api.github.com/repos/mralexgray/appicns/releases{/id}
p2210
aVhttps://api.github.com/repos/mralexgray/appify/releases{/id}
p2211
aVgit@github.com:mralexgray/-REPONAME.git
p2212
aVgit@github.com:mralexgray/ace.git
p2213
aVgit@github.com:mralexgray/ACEView.git
p2214
aVgit@github.com:mralexgray/ActiveLog.git
p2215
aVgit@github.com:mralexgray/adium.git
p2216
aVgit@github.com:mralexgray/ADLivelyTableView.git
p2217
aVgit@github.com:mralexgray/AFIncrementalStore.git
p2218
aVgit@github.com:mralexgray/AFNetworking.git
p2219
aVgit@github.com:mralexgray/AGNSSplitView.git
p2220
aVgit@github.com:mralexgray/AGScopeBar.git
p2221
aVgit@github.com:mralexgray/agvtool-xcode-plugin.git
p2222
aVgit@github.com:mralexgray/AHContentBrowser.git
p2223
aVgit@github.com:mralexgray/AHLaunchCtl.git
p2224
aVgit@github.com:mralexgray/AHLayout.git
p2225
aVgit@github.com:mralexgray/Airmail-Plug-In-Framework.git
p2226
aVgit@github.com:mralexgray/AJS-iTunes-API.git
p2227
aVgit@github.com:mralexgray/Alcatraz.git
p2228
aVgit@github.com:mralexgray/alcatraz-packages.git
p2229
aVgit@github.com:mralexgray/alexicons.git
p2230
aVgit@github.com:mralexgray/Alfred-Google-Translate.git
p2231
aVgit@github.com:mralexgray/Amber.git
p2232
aVgit@github.com:mralexgray/Amethyst.git
p2233
aVgit@github.com:mralexgray/Animated-Paths.git
p2234
aVgit@github.com:mralexgray/AnsiLove.framework.git
p2235
aVgit@github.com:mralexgray/ANTrackBar.git
p2236
aVgit@github.com:mralexgray/AOP-in-Objective-C.git
p2237
aVgit@github.com:mralexgray/Apaxy.git
p2238
aVgit@github.com:mralexgray/app.git
p2239
aVgit@github.com:mralexgray/appicns.git
p2240
aVgit@github.com:mralexgray/appify.git
p2241
aVhttps://api.github.com/repos/mralexgray/-REPONAME/stargazers
p2242
aVhttps://api.github.com/repos/mralexgray/ace/stargazers
p2243
aVhttps://api.github.com/repos/mralexgray/ACEView/stargazers
p2244
aVhttps://api.github.com/repos/mralexgray/ActiveLog/stargazers
p2245
aVhttps://api.github.com/repos/mralexgray/adium/stargazers
p2246
aVhttps://api.github.com/repos/mralexgray/ADLivelyTableView/stargazers
p2247
aVhttps://api.github.com/repos/mralexgray/AFIncrementalStore/stargazers
p2248
aVhttps://api.github.com/repos/mralexgray/AFNetworking/stargazers
p2249
aVhttps://api.github.com/repos/mralexgray/AGNSSplitView/stargazers
p2250
aVhttps://api.github.com/repos/mralexgray/AGScopeBar/stargazers
p2251
aVhttps://api.github.com/repos/mralexgray/agvtool-xcode-plugin/stargazers
p2252
aVhttps://api.github.com/repos/mralexgray/AHContentBrowser/stargazers
p2253
aVhttps://api.github.com/repos/mralexgray/AHLaunchCtl/stargazers
p2254
aVhttps://api.github.com/repos/mralexgray/AHLayout/stargazers
p2255
aVhttps://api.github.com/repos/mralexgray/Airmail-Plug-In-Framework/stargazers
p2256
aVhttps://api.github.com/repos/mralexgray/AJS-iTunes-API/stargazers
p2257
aVhttps://api.github.com/repos/mralexgray/Alcatraz/stargazers
p2258
aVhttps://api.github.com/repos/mralexgray/alcatraz-packages/stargazers
p2259
aVhttps://api.github.com/repos/mralexgray/alexicons/stargazers
p2260
aVhttps://api.github.com/repos/mralexgray/Alfred-Google-Translate/stargazers
p2261
aVhttps://api.github.com/repos/mralexgray/Amber/stargazers
p2262
aVhttps://api.github.com/repos/mralexgray/Amethyst/stargazers
p2263
aVhttps://api.github.com/repos/mralexgray/Animated-Paths/stargazers
p2264
aVhttps://api.github.com/repos/mralexgray/AnsiLove.framework/stargazers
p2265
aVhttps://api.github.com/repos/mralexgray/ANTrackBar/stargazers
p2266
aVhttps://api.github.com/repos/mralexgray/AOP-in-Objective-C/stargazers
p2267
aVhttps://api.github.com/repos/mralexgray/Apaxy/stargazers
p2268
aVhttps://api.github.com/repos/mralexgray/app/stargazers
p2269
aVhttps://api.github.com/repos/mralexgray/appicns/stargazers
p2270
aVhttps://api.github.com/repos/mralexgray/appify/stargazers
p2271
aVhttps://api.github.com/repos/mralexgray/-REPONAME/statuses/{sha}
p2272
aVhttps://api.github.com/repos/mralexgray/ace/statuses/{sha}
p2273
aVhttps://api.github.com/repos/mralexgray/ACEView/statuses/{sha}
p2274
aVhttps://api.github.com/repos/mralexgray/ActiveLog/statuses/{sha}
p2275
aVhttps://api.github.com/repos/mralexgray/adium/statuses/{sha}
p2276
aVhttps://api.github.com/repos/mralexgray/ADLivelyTableView/statuses/{sha}
p2277
aVhttps://api.github.com/repos/mralexgray/AFIncrementalStore/statuses/{sha}
p2278
aVhttps://api.github.com/repos/mralexgray/AFNetworking/statuses/{sha}
p2279
aVhttps://api.github.com/repos/mralexgray/AGNSSplitView/statuses/{sha}
p2280
aVhttps://api.github.com/repos/mralexgray/AGScopeBar/statuses/{sha}
p2281
aVhttps://api.github.com/repos/mralexgray/agvtool-xcode-plugin/statuses/{sha}
p2282
aVhttps://api.github.com/repos/mralexgray/AHContentBrowser/statuses/{sha}
p2283
aVhttps://api.github.com/repos/mralexgray/AHLaunchCtl/statuses/{sha}
p2284
aVhttps://api.github.com/repos/mralexgray/AHLayout/statuses/{sha}
p2285
aVhttps://api.github.com/repos/mralexgray/Airmail-Plug-In-Framework/statuses/{sha}
p2286
aVhttps://api.github.com/repos/mralexgray/AJS-iTunes-API/statuses/{sha}
p2287
aVhttps://api.github.com/repos/mralexgray/Alcatraz/statuses/{sha}
p2288
aVhttps://api.github.com/repos/mralexgray/alcatraz-packages/statuses/{sha}
p2289
aVhttps://api.github.com/repos/mralexgray/alexicons/statuses/{sha}
p2290
aVhttps://api.github.com/repos/mralexgray/Alfred-Google-Translate/statuses/{sha}
p2291
aVhttps://api.github.com/repos/mralexgray/Amber/statuses/{sha}
p2292
aVhttps://api.github.com/repos/mralexgray/Amethyst/statuses/{sha}
p2293
aVhttps://api.github.com/repos/mralexgray/Animated-Paths/statuses/{sha}
p2294
aVhttps://api.github.com/repos/mralexgray/AnsiLove.framework/statuses/{sha}
p2295
aVhttps://api.github.com/repos/mralexgray/ANTrackBar/statuses/{sha}
p2296
aVhttps://api.github.com/repos/mralexgray/AOP-in-Objective-C/statuses/{sha}
p2297
aVhttps://api.github.com/repos/mralexgray/Apaxy/statuses/{sha}
p2298
aVhttps://api.github.com/repos/mralexgray/app/statuses/{sha}
p2299
aVhttps://api.github.com/repos/mralexgray/appicns/statuses/{sha}
p2300
aVhttps://api.github.com/repos/mralexgray/appify/statuses/{sha}
p2301
aVhttps://api.github.com/repos/mralexgray/-REPONAME/subscribers
p2302
aVhttps://api.github.com/repos/mralexgray/ace/subscribers
p2303
aVhttps://api.github.com/repos/mralexgray/ACEView/subscribers
p2304
aVhttps://api.github.com/repos/mralexgray/ActiveLog/subscribers
p2305
aVhttps://api.github.com/repos/mralexgray/adium/subscribers
p2306
aVhttps://api.github.com/repos/mralexgray/ADLivelyTableView/subscribers
p2307
aVhttps://api.github.com/repos/mralexgray/AFIncrementalStore/subscribers
p2308
aVhttps://api.github.com/repos/mralexgray/AFNetworking/subscribers
p2309
aVhttps://api.github.com/repos/mralexgray/AGNSSplitView/subscribers
p2310
aVhttps://api.github.com/repos/mralexgray/AGScopeBar/subscribers
p2311
aVhttps://api.github.com/repos/mralexgray/agvtool-xcode-plugin/subscribers
p2312
aVhttps://api.github.com/repos/mralexgray/AHContentBrowser/subscribers
p2313
aVhttps://api.github.com/repos/mralexgray/AHLaunchCtl/subscribers
p2314
aVhttps://api.github.com/repos/mralexgray/AHLayout/subscribers
p2315
aVhttps://api.github.com/repos/mralexgray/Airmail-Plug-In-Framework/subscribers
p2316
aVhttps://api.github.com/repos/mralexgray/AJS-iTunes-API/subscribers
p2317
aVhttps://api.github.com/repos/mralexgray/Alcatraz/subscribers
p2318
aVhttps://api.github.com/repos/mralexgray/alcatraz-packages/subscribers
p2319
aVhttps://api.github.com/repos/mralexgray/alexicons/subscribers
p2320
aVhttps://api.github.com/repos/mralexgray/Alfred-Google-Translate/subscribers
p2321
aVhttps://api.github.com/repos/mralexgray/Amber/subscribers
p2322
aVhttps://api.github.com/repos/mralexgray/Amethyst/subscribers
p2323
aVhttps://api.github.com/repos/mralexgray/Animated-Paths/subscribers
p2324
aVhttps://api.github.com/repos/mralexgray/AnsiLove.framework/subscribers
p2325
aVhttps://api.github.com/repos/mralexgray/ANTrackBar/subscribers
p2326
aVhttps://api.github.com/repos/mralexgray/AOP-in-Objective-C/subscribers
p2327
aVhttps://api.github.com/repos/mralexgray/Apaxy/subscribers
p2328
aVhttps://api.github.com/repos/mralexgray/app/subscribers
p2329
aVhttps://api.github.com/repos/mralexgray/appicns/subscribers
p2330
aVhttps://api.github.com/repos/mralexgray/appify/subscribers
p2331
aVhttps://api.github.com/repos/mralexgray/-REPONAME/subscription
p2332
aVhttps://api.github.com/repos/mralexgray/ace/subscription
p2333
aVhttps://api.github.com/repos/mralexgray/ACEView/subscription
p2334
aVhttps://api.github.com/repos/mralexgray/ActiveLog/subscription
p2335
aVhttps://api.github.com/repos/mralexgray/adium/subscription
p2336
aVhttps://api.github.com/repos/mralexgray/ADLivelyTableView/subscription
p2337
aVhttps://api.github.com/repos/mralexgray/AFIncrementalStore/subscription
p2338
aVhttps://api.github.com/repos/mralexgray/AFNetworking/subscription
p2339
aVhttps://api.github.com/repos/mralexgray/AGNSSplitView/subscription
p2340
aVhttps://api.github.com/repos/mralexgray/AGScopeBar/subscription
p2341
aVhttps://api.github.com/repos/mralexgray/agvtool-xcode-plugin/subscription
p2342
aVhttps://api.github.com/repos/mralexgray/AHContentBrowser/subscription
p2343
aVhttps://api.github.com/repos/mralexgray/AHLaunchCtl/subscription
p2344
aVhttps://api.github.com/repos/mralexgray/AHLayout/subscription
p2345
aVhttps://api.github.com/repos/mralexgray/Airmail-Plug-In-Framework/subscription
p2346
aVhttps://api.github.com/repos/mralexgray/AJS-iTunes-API/subscription
p2347
aVhttps://api.github.com/repos/mralexgray/Alcatraz/subscription
p2348
aVhttps://api.github.com/repos/mralexgray/alcatraz-packages/subscription
p2349
aVhttps://api.github.com/repos/mralexgray/alexicons/subscription
p2350
aVhttps://api.github.com/repos/mralexgray/Alfred-Google-Translate/subscription
p2351
aVhttps://api.github.com/repos/mralexgray/Amber/subscription
p2352
aVhttps://api.github.com/repos/mralexgray/Amethyst/subscription
p2353
aVhttps://api.github.com/repos/mralexgray/Animated-Paths/subscription
p2354
aVhttps://api.github.com/repos/mralexgray/AnsiLove.framework/subscription
p2355
aVhttps://api.github.com/repos/mralexgray/ANTrackBar/subscription
p2356
aVhttps://api.github.com/repos/mralexgray/AOP-in-Objective-C/subscription
p2357
aVhttps://api.github.com/repos/mralexgray/Apaxy/subscription
p2358
aVhttps://api.github.com/repos/mralexgray/app/subscription
p2359
aVhttps://api.github.com/repos/mralexgray/appicns/subscription
p2360
aVhttps://api.github.com/repos/mralexgray/appify/subscription
p2361
aVhttps://github.com/mralexgray/-REPONAME
p2362
aVhttps://github.com/mralexgray/ace
p2363
aVhttps://github.com/mralexgray/ACEView
p2364
aVhttps://github.com/mralexgray/ActiveLog
p2365
aVhttps://github.com/mralexgray/adium
p2366
aVhttps://github.com/mralexgray/ADLivelyTableView
p2367
aVhttps://github.com/mralexgray/AFIncrementalStore
p2368
aVhttps://github.com/mralexgray/AFNetworking
p2369
aVhttps://github.com/mralexgray/AGNSSplitView
p2370
aVhttps://github.com/mralexgray/AGScopeBar
p2371
aVhttps://github.com/mralexgray/agvtool-xcode-plugin
p2372
aVhttps://github.com/mralexgray/AHContentBrowser
p2373
aVhttps://github.com/mralexgray/AHLaunchCtl
p2374
aVhttps://github.com/mralexgray/AHLayout
p2375
aVhttps://github.com/mralexgray/Airmail-Plug-In-Framework
p2376
aVhttps://github.com/mralexgray/AJS-iTunes-API
p2377
aVhttps://github.com/mralexgray/Alcatraz
p2378
aVhttps://github.com/mralexgray/alcatraz-packages
p2379
aVhttps://github.com/mralexgray/alexicons
p2380
aVhttps://github.com/mralexgray/Alfred-Google-Translate
p2381
aVhttps://github.com/mralexgray/Amber
p2382
aVhttps://github.com/mralexgray/Amethyst
p2383
aVhttps://github.com/mralexgray/Animated-Paths
p2384
aVhttps://github.com/mralexgray/AnsiLove.framework
p2385
aVhttps://github.com/mralexgray/ANTrackBar
p2386
aVhttps://github.com/mralexgray/AOP-in-Objective-C
p2387
aVhttps://github.com/mralexgray/Apaxy
p2388
aVhttps://github.com/mralexgray/app
p2389
aVhttps://github.com/mralexgray/appicns
p2390
aVhttps://github.com/mralexgray/appify
p2391
aVhttps://api.github.com/repos/mralexgray/-REPONAME/tags
p2392
aVhttps://api.github.com/repos/mralexgray/ace/tags
p2393
aVhttps://api.github.com/repos/mralexgray/ACEView/tags
p2394
aVhttps://api.github.com/repos/mralexgray/ActiveLog/tags
p2395
aVhttps://api.github.com/repos/mralexgray/adium/tags
p2396
aVhttps://api.github.com/repos/mralexgray/ADLivelyTableView/tags
p2397
aVhttps://api.github.com/repos/mralexgray/AFIncrementalStore/tags
p2398
aVhttps://api.github.com/repos/mralexgray/AFNetworking/tags
p2399
aVhttps://api.github.com/repos/mralexgray/AGNSSplitView/tags
p2400
aVhttps://api.github.com/repos/mralexgray/AGScopeBar/tags
p2401
aVhttps://api.github.com/repos/mralexgray/agvtool-xcode-plugin/tags
p2402
aVhttps://api.github.com/repos/mralexgray/AHContentBrowser/tags
p2403
aVhttps://api.github.com/repos/mralexgray/AHLaunchCtl/tags
p2404
aVhttps://api.github.com/repos/mralexgray/AHLayout/tags
p2405
aVhttps://api.github.com/repos/mralexgray/Airmail-Plug-In-Framework/tags
p2406
aVhttps://api.github.com/repos/mralexgray/AJS-iTunes-API/tags
p2407
aVhttps://api.github.com/repos/mralexgray/Alcatraz/tags
p2408
aVhttps://api.github.com/repos/mralexgray/alcatraz-packages/tags
p2409
aVhttps://api.github.com/repos/mralexgray/alexicons/tags
p2410
aVhttps://api.github.com/repos/mralexgray/Alfred-Google-Translate/tags
p2411
aVhttps://api.github.com/repos/mralexgray/Amber/tags
p2412
aVhttps://api.github.com/repos/mralexgray/Amethyst/tags
p2413
aVhttps://api.github.com/repos/mralexgray/Animated-Paths/tags
p2414
aVhttps://api.github.com/repos/mralexgray/AnsiLove.framework/tags
p2415
aVhttps://api.github.com/repos/mralexgray/ANTrackBar/tags
p2416
aVhttps://api.github.com/repos/mralexgray/AOP-in-Objective-C/tags
p2417
aVhttps://api.github.com/repos/mralexgray/Apaxy/tags
p2418
aVhttps://api.github.com/repos/mralexgray/app/tags
p2419
aVhttps://api.github.com/repos/mralexgray/appicns/tags
p2420
aVhttps://api.github.com/repos/mralexgray/appify/tags
p2421
aVhttps://api.github.com/repos/mralexgray/-REPONAME/teams
p2422
aVhttps://api.github.com/repos/mralexgray/ace/teams
p2423
aVhttps://api.github.com/repos/mralexgray/ACEView/teams
p2424
aVhttps://api.github.com/repos/mralexgray/ActiveLog/teams
p2425
aVhttps://api.github.com/repos/mralexgray/adium/teams
p2426
aVhttps://api.github.com/repos/mralexgray/ADLivelyTableView/teams
p2427
aVhttps://api.github.com/repos/mralexgray/AFIncrementalStore/teams
p2428
aVhttps://api.github.com/repos/mralexgray/AFNetworking/teams
p2429
aVhttps://api.github.com/repos/mralexgray/AGNSSplitView/teams
p2430
aVhttps://api.github.com/repos/mralexgray/AGScopeBar/teams
p2431
aVhttps://api.github.com/repos/mralexgray/agvtool-xcode-plugin/teams
p2432
aVhttps://api.github.com/repos/mralexgray/AHContentBrowser/teams
p2433
aVhttps://api.github.com/repos/mralexgray/AHLaunchCtl/teams
p2434
aVhttps://api.github.com/repos/mralexgray/AHLayout/teams
p2435
aVhttps://api.github.com/repos/mralexgray/Airmail-Plug-In-Framework/teams
p2436
aVhttps://api.github.com/repos/mralexgray/AJS-iTunes-API/teams
p2437
aVhttps://api.github.com/repos/mralexgray/Alcatraz/teams
p2438
aVhttps://api.github.com/repos/mralexgray/alcatraz-packages/teams
p2439
aVhttps://api.github.com/repos/mralexgray/alexicons/teams
p2440
aVhttps://api.github.com/repos/mralexgray/Alfred-Google-Translate/teams
p2441
aVhttps://api.github.com/repos/mralexgray/Amber/teams
p2442
aVhttps://api.github.com/repos/mralexgray/Amethyst/teams
p2443
aVhttps://api.github.com/repos/mralexgray/Animated-Paths/teams
p2444
aVhttps://api.github.com/repos/mralexgray/AnsiLove.framework/teams
p2445
aVhttps://api.github.com/repos/mralexgray/ANTrackBar/teams
p2446
aVhttps://api.github.com/repos/mralexgray/AOP-in-Objective-C/teams
p2447
aVhttps://api.github.com/repos/mralexgray/Apaxy/teams
p2448
aVhttps://api.github.com/repos/mralexgray/app/teams
p2449
aVhttps://api.github.com/repos/mralexgray/appicns/teams
p2450
aVhttps://api.github.com/repos/mralexgray/appify/teams
p2451
aVhttps://api.github.com/repos/mralexgray/-REPONAME/git/trees{/sha}
p2452
aVhttps://api.github.com/repos/mralexgray/ace/git/trees{/sha}
p2453
aVhttps://api.github.com/repos/mralexgray/ACEView/git/trees{/sha}
p2454
aVhttps://api.github.com/repos/mralexgray/ActiveLog/git/trees{/sha}
p2455
aVhttps://api.github.com/repos/mralexgray/adium/git/trees{/sha}
p2456
aVhttps://api.github.com/repos/mralexgray/ADLivelyTableView/git/trees{/sha}
p2457
aVhttps://api.github.com/repos/mralexgray/AFIncrementalStore/git/trees{/sha}
p2458
aVhttps://api.github.com/repos/mralexgray/AFNetworking/git/trees{/sha}
p2459
aVhttps://api.github.com/repos/mralexgray/AGNSSplitView/git/trees{/sha}
p2460
aVhttps://api.github.com/repos/mralexgray/AGScopeBar/git/trees{/sha}
p2461
aVhttps://api.github.com/repos/mralexgray/agvtool-xcode-plugin/git/trees{/sha}
p2462
aVhttps://api.github.com/repos/mralexgray/AHContentBrowser/git/trees{/sha}
p2463
aVhttps://api.github.com/repos/mralexgray/AHLaunchCtl/git/trees{/sha}
p2464
aVhttps://api.github.com/repos/mralexgray/AHLayout/git/trees{/sha}
p2465
aVhttps://api.github.com/repos/mralexgray/Airmail-Plug-In-Framework/git/trees{/sha}
p2466
aVhttps://api.github.com/repos/mralexgray/AJS-iTunes-API/git/trees{/sha}
p2467
aVhttps://api.github.com/repos/mralexgray/Alcatraz/git/trees{/sha}
p2468
aVhttps://api.github.com/repos/mralexgray/alcatraz-packages/git/trees{/sha}
p2469
aVhttps://api.github.com/repos/mralexgray/alexicons/git/trees{/sha}
p2470
aVhttps://api.github.com/repos/mralexgray/Alfred-Google-Translate/git/trees{/sha}
p2471
aVhttps://api.github.com/repos/mralexgray/Amber/git/trees{/sha}
p2472
aVhttps://api.github.com/repos/mralexgray/Amethyst/git/trees{/sha}
p2473
aVhttps://api.github.com/repos/mralexgray/Animated-Paths/git/trees{/sha}
p2474
aVhttps://api.github.com/repos/mralexgray/AnsiLove.framework/git/trees{/sha}
p2475
aVhttps://api.github.com/repos/mralexgray/ANTrackBar/git/trees{/sha}
p2476
aVhttps://api.github.com/repos/mralexgray/AOP-in-Objective-C/git/trees{/sha}
p2477
aVhttps://api.github.com/repos/mralexgray/Apaxy/git/trees{/sha}
p2478
aVhttps://api.github.com/repos/mralexgray/app/git/trees{/sha}
p2479
aVhttps://api.github.com/repos/mralexgray/appicns/git/trees{/sha}
p2480
aVhttps://api.github.com/repos/mralexgray/appify/git/trees{/sha}
p2481
aVhttps://api.github.com/repos/mralexgray/-REPONAME
p2482
aVhttps://api.github.com/repos/mralexgray/ace
p2483
aVhttps://api.github.com/repos/mralexgray/ACEView
p2484
aVhttps://api.github.com/repos/mralexgray/ActiveLog
p2485
aVhttps://api.github.com/repos/mralexgray/adium
p2486
aVhttps://api.github.com/repos/mralexgray/ADLivelyTableView
p2487
aVhttps://api.github.com/repos/mralexgray/AFIncrementalStore
p2488
aVhttps://api.github.com/repos/mralexgray/AFNetworking
p2489
aVhttps://api.github.com/repos/mralexgray/AGNSSplitView
p2490
aVhttps://api.github.com/repos/mralexgray/AGScopeBar
p2491
aVhttps://api.github.com/repos/mralexgray/agvtool-xcode-plugin
p2492
aVhttps://api.github.com/repos/mralexgray/AHContentBrowser
p2493
aVhttps://api.github.com/repos/mralexgray/AHLaunchCtl
p2494
aVhttps://api.github.com/repos/mralexgray/AHLayout
p2495
aVhttps://api.github.com/repos/mralexgray/Airmail-Plug-In-Framework
p2496
aVhttps://api.github.com/repos/mralexgray/AJS-iTunes-API
p2497
aVhttps://api.github.com/repos/mralexgray/Alcatraz
p2498
aVhttps://api.github.com/repos/mralexgray/alcatraz-packages
p2499
aVhttps://api.github.com/repos/mralexgray/alexicons
p2500
aVhttps://api.github.com/repos/mralexgray/Alfred-Google-Translate
p2501
aVhttps://api.github.com/repos/mralexgray/Amber
p2502
aVhttps://api.github.com/repos/mralexgray/Amethyst
p2503
aVhttps://api.github.com/repos/mralexgray/Animated-Paths
p2504
aVhttps://api.github.com/repos/mralexgray/AnsiLove.framework
p2505
aVhttps://api.github.com/repos/mralexgray/ANTrackBar
p2506
aVhttps://api.github.com/repos/mralexgray/AOP-in-Objective-C
p2507
aVhttps://api.github.com/repos/mralexgray/Apaxy
p2508
aVhttps://api.github.com/repos/mralexgray/app
p2509
aVhttps://api.github.com/repos/mralexgray/appicns
p2510
aVhttps://api.github.com/repos/mralexgray/appify
p2511
atp2512
ba(lp2513
g15
(g16
(dp2514
g18
g19
(g20
(I0
tp2515
g22
tp2516
Rp2517
(I1
(L1L
tp2518
g29
I00
(lp2519
g75
atp2520
bsg101
Nstp2521
Rp2522
ag15
(g16
(dp2523
g18
g19
(g20
(I0
tp2524
g22
tp2525
Rp2526
(I1
(L9L
tp2527
g29
I00
(lp2528
g50
ag51
ag65
ag78
ag79
ag85
ag87
ag98
ag99
atp2529
bsg101
Nstp2530
Rp2531
ag15
(g16
(dp2532
g18
g19
(g20
(I0
tp2533
g22
tp2534
Rp2535
(I1
(L3L
tp2536
g29
I00
(lp2537
g44
ag83
ag96
atp2538
bsg101
Nstp2539
Rp2540
ag15
(g16
(dp2541
g18
g19
(g20
(I0
tp2542
g22
tp2543
Rp2544
(I1
(L6L
tp2545
g29
I00
(lp2546
g49
ag58
ag59
ag60
ag61
ag81
atp2547
bsg101
Nstp2548
Rp2549
ag15
(g16
(dp2550
g18
g19
(g20
(I0
tp2551
g22
tp2552
Rp2553
(I1
(L48L
tp2554
g29
I00
(lp2555
g33
ag34
ag35
ag36
ag37
ag38
ag39
ag40
ag41
ag42
ag43
ag45
ag46
ag47
ag48
ag52
ag53
ag54
ag55
ag56
ag57
ag62
ag63
ag64
ag66
ag67
ag68
ag69
ag70
ag71
ag72
ag73
ag74
ag76
ag77
ag80
ag82
ag84
ag86
ag88
ag89
ag90
ag91
ag92
ag93
ag94
ag95
ag97
atp2556
bsg101
Nstp2557
Rp2558
a(dp2559
S'0.14.1'
p2560
(dp2561
S'axes'
p2562
g14
sS'blocks'
p2563
(lp2564
(dp2565
S'mgr_locs'
p2566
c__builtin__
slice
p2567
(I42
I43
I1
tp2568
Rp2569
sS'values'
p2570
g122
sa(dp2571
g2566
g19
(g20
(I0
tp2572
g22
tp2573
Rp2574
(I1
(L9L
tp2575
g112
I00
S'\x11\x00\x00\x00\x00\x00\x00\x00\x12\x00\x00\x00\x00\x00\x00\x00 \x00\x00\x00\x00\x00\x00\x00-\x00\x00\x00\x00\x00\x00\x00.\x00\x00\x00\x00\x00\x00\x004\x00\x00\x00\x00\x00\x00\x006\x00\x00\x00\x00\x00\x00\x00A\x00\x00\x00\x00\x00\x00\x00B\x00\x00\x00\x00\x00\x00\x00'
p2576
tp2577
bsg2570
g133
sa(dp2578
g2566
g19
(g20
(I0
tp2579
g22
tp2580
Rp2581
(I1
(L3L
tp2582
g112
I00
S'\x0b\x00\x00\x00\x00\x00\x00\x002\x00\x00\x00\x00\x00\x00\x00?\x00\x00\x00\x00\x00\x00\x00'
p2583
tp2584
bsg2570
g139
sa(dp2585
g2566
g19
(g20
(I0
tp2586
g22
tp2587
Rp2588
(I1
(L6L
tp2589
g112
I00
S'\x10\x00\x00\x00\x00\x00\x00\x00\x19\x00\x00\x00\x00\x00\x00\x00\x1a\x00\x00\x00\x00\x00\x00\x00\x1b\x00\x00\x00\x00\x00\x00\x00\x1c\x00\x00\x00\x00\x00\x00\x000\x00\x00\x00\x00\x00\x00\x00'
p2590
tp2591
bsg2570
g154
sa(dp2592
g2566
g19
(g20
(I0
tp2593
g22
tp2594
Rp2595
(I1
(L48L
tp2596
g112
I00
S'\x00\x00\x00\x00\x00\x00\x00\x00\x01\x00\x00\x00\x00\x00\x00\x00\x02\x00\x00\x00\x00\x00\x00\x00\x03\x00\x00\x00\x00\x00\x00\x00\x04\x00\x00\x00\x00\x00\x00\x00\x05\x00\x00\x00\x00\x00\x00\x00\x06\x00\x00\x00\x00\x00\x00\x00\x07\x00\x00\x00\x00\x00\x00\x00\x08\x00\x00\x00\x00\x00\x00\x00\t\x00\x00\x00\x00\x00\x00\x00\n\x00\x00\x00\x00\x00\x00\x00\x0c\x00\x00\x00\x00\x00\x00\x00\r\x00\x00\x00\x00\x00\x00\x00\x0e\x00\x00\x00\x00\x00\x00\x00\x0f\x00\x00\x00\x00\x00\x00\x00\x13\x00\x00\x00\x00\x00\x00\x00\x14\x00\x00\x00\x00\x00\x00\x00\x15\x00\x00\x00\x00\x00\x00\x00\x16\x00\x00\x00\x00\x00\x00\x00\x17\x00\x00\x00\x00\x00\x00\x00\x18\x00\x00\x00\x00\x00\x00\x00\x1d\x00\x00\x00\x00\x00\x00\x00\x1e\x00\x00\x00\x00\x00\x00\x00\x1f\x00\x00\x00\x00\x00\x00\x00!\x00\x00\x00\x00\x00\x00\x00"\x00\x00\x00\x00\x00\x00\x00#\x00\x00\x00\x00\x00\x00\x00$\x00\x00\x00\x00\x00\x00\x00%\x00\x00\x00\x00\x00\x00\x00&\x00\x00\x00\x00\x00\x00\x00\'\x00\x00\x00\x00\x00\x00\x00(\x00\x00\x00\x00\x00\x00\x00)\x00\x00\x00\x00\x00\x00\x00+\x00\x00\x00\x00\x00\x00\x00,\x00\x00\x00\x00\x00\x00\x00/\x00\x00\x00\x00\x00\x00\x001\x00\x00\x00\x00\x00\x00\x003\x00\x00\x00\x00\x00\x00\x005\x00\x00\x00\x00\x00\x00\x007\x00\x00\x00\x00\x00\x00\x008\x00\x00\x00\x00\x00\x00\x009\x00\x00\x00\x00\x00\x00\x00:\x00\x00\x00\x00\x00\x00\x00;\x00\x00\x00\x00\x00\x00\x00<\x00\x00\x00\x00\x00\x00\x00=\x00\x00\x00\x00\x00\x00\x00>\x00\x00\x00\x00\x00\x00\x00@\x00\x00\x00\x00\x00\x00\x00'
p2597
tp2598
bsg2570
g165
sasstp2599
bsb.