ccopy_reg
_reconstructor
p0
(cnltk.classify.naivebayes
NaiveBayesClassifier
p1
c__builtin__
object
p2
Ntp3
Rp4
(dp5
S'_labels'
p6
(lp7
S'male'
p8
aS'female'
p9
asS'_feature_probdist'
p10
(dp11
(g9
S'last_2'
p12
tp13
g0
(cnltk.probability
ELEProbDist
p14
g2
Ntp15
Rp16
(dp17
S'_gamma'
p18
F0.5
sS'_N'
p19
I2508
sS'_freqdist'
p20
cnltk.probability
FreqDist
p21
((dp22
Vgy
p23
I4
sVge
p24
I5
sVch
p25
I1
sVga
p26
I2
sVgo
p27
I1
sVgi
p28
I4
sVgh
p29
I4
sVld
p30
I1
sVle
p31
I68
sVty
p32
I17
sVlo
p33
I2
sVll
p34
I16
sVli
p35
I21
sVJo
p36
I1
sVth
p37
I17
sVti
p38
I11
sVte
p39
I67
sVly
p40
I24
sVyl
p41
I7
sVyn
p42
I36
sVya
p43
I12
sVde
p44
I17
sVye
p45
I10
sVda
p46
I68
sVdy
p47
I26
sVys
p48
I5
sVem
p49
I1
sVel
p50
I34
sVeo
p51
I2
sVen
p52
I45
sVei
p53
I1
sVzi
p54
I2
sVee
p55
I54
sVed
p56
I5
sVeg
p57
I1
sVea
p58
I20
sVza
p59
I6
sVah
p60
I32
sVey
p61
I45
sVzy
p62
I3
sVet
p63
I11
sVew
p64
I1
sVes
p65
I3
sVer
p66
I15
sVrt
p67
I1
sVrr
p68
I1
sVry
p69
I24
sVrd
p70
I3
sVre
p71
I26
sVrg
p72
I2
sVra
p73
I99
sVrb
p74
I1
sVrl
p75
I1
sVro
p76
I1
sVri
p77
I24
sVrj
p78
I1
sVbe
p79
I2
sVba
p80
I4
sVwn
p81
I2
sVbi
p82
I6
sVe 
p83
I1
sVjo
p84
I2
sVja
p85
I2
sVEm
p86
I1
sVon
p87
I10
sVol
p88
I3
sVok
p89
I1
sVoh
p90
I1
sVoe
p91
I2
sVla
p92
I103
sVoy
p93
I1
sVow
p94
I2
sVou
p95
I1
sVot
p96
I4
sVos
p97
I1
sVtt
p98
I6
sVci
p99
I3
sVxi
p100
I1
sVva
p101
I14
sVca
p102
I19
sVxa
p103
I1
sVce
p104
I23
sVcy
p105
I7
sVxy
p106
I2
sVve
p107
I2
sVpy
p108
I1
sVby
p109
I4
sVpa
p110
I3
sVip
p111
I1
sVpi
p112
I1
sVhy
p113
I2
sVKi
p114
I1
sVka
p115
I21
sVal
p116
I8
sVhi
p117
I3
sVha
p118
I25
sVhe
p119
I11
sVme
p120
I5
sVma
p121
I12
sVux
p122
I1
sVmb
p123
I1
sVmi
p124
I10
sVus
p125
I1
sVur
p126
I2
sVum
p127
I1
sVul
p128
I1
sVun
p129
I1
sVue
p130
I2
sVud
p131
I1
sVta
p132
I106
sVmy
p133
I4
sVil
p134
I12
sViy
p135
I1
sVix
p136
I1
sVjy
p137
I1
sVab
p138
I1
sVae
p139
I4
sVad
p140
I3
sVag
p141
I1
sVai
p142
I2
sVvi
p143
I2
sVis
p144
I29
sVir
p145
I1
sVam
p146
I3
sVit
p147
I6
sVan
p148
I28
sVia
p149
I130
sVas
p150
I5
sVar
p151
I2
sVim
p152
I1
sVat
p153
I1
sVio
p154
I1
sVin
p155
I30
sVay
p156
I8
sVvy
p157
I3
sVst
p158
I1
sVie
p159
I208
sVid
p160
I4
sVni
p161
I22
sVnn
p162
I28
sVDi
p163
I1
sVna
p164
I225
sVdi
p165
I22
sVnd
p166
I3
sVne
p167
I177
sVny
p168
I20
sVns
p169
I1
sVnt
p170
I3
sVyb
p171
I1
sVfy
p172
I1
sVfa
p173
I2
sVze
p174
I1
sVfi
p175
I3
sVau
p176
I1
sVky
p177
I5
sVsy
p178
I15
sVke
p179
I3
sVss
p180
I3
sVVi
p181
I1
sVki
p182
I7
sVko
p183
I5
sVor
p184
I5
sVks
p185
I1
sVsi
p186
I9
sVsh
p187
I2
sVso
p188
I1
sVsa
p189
I57
sVse
p190
I26
stp191
Rp192
sS'_bins'
p193
I249
sS'_divisor'
p194
F2632.5
sbs(g8
g12
tp195
g0
(g14
g2
Ntp196
Rp197
(dp198
g18
F0.5
sg19
I1492
sg20
g21
((dp199
Vgt
p200
I1
sVgs
p201
I1
sVgy
p202
I3
sVge
p203
I8
sVch
p204
I15
sVgo
p205
I1
sVgh
p206
I4
sVlf
p207
I2
sVld
p208
I15
sVle
p209
I20
sVtz
p210
I1
sVty
p211
I10
sVln
p212
I1
sVlo
p213
I8
sVll
p214
I26
sVlm
p215
I2
sVtr
p216
I2
sVts
p217
I1
sVli
p218
I4
sVto
p219
I5
sVlt
p220
I4
sVls
p221
I5
sVth
p222
I12
sVte
p223
I6
sVly
p224
I16
sVdo
p225
I12
sVyl
p226
I1
sVyn
p227
I7
sVdd
p228
I5
sVde
p229
I7
sVye
p230
I2
sVyd
p231
I2
sVaf
p232
I1
sVdy
p233
I11
sVyt
p234
I1
sVax
p235
I2
sVem
p236
I4
sVel
p237
I32
sVeo
p238
I5
sVen
p239
I38
sVei
p240
I1
sVek
p241
I2
sVee
p242
I3
sVed
p243
I11
sVeg
p244
I2
sVef
p245
I2
sVea
p246
I1
sVeb
p247
I1
sVah
p248
I8
sVey
p249
I43
sVzy
p250
I1
sVez
p251
I1
sVeu
p252
I1
sVet
p253
I4
sVew
p254
I4
sVev
p255
I3
sVep
p256
I1
sVes
p257
I11
sVer
p258
I46
sVrt
p259
I24
sVrv
p260
I3
sVrs
p261
I3
sVry
p262
I24
sVrd
p263
I39
sVre
p264
I10
sVrg
p265
I1
sVra
p266
I2
sVrc
p267
I1
sVrl
p268
I2
sVrn
p269
I2
sVro
p270
I7
sVri
p271
I7
sVrk
p272
I4
sVbe
p273
I5
sVwe
p274
I1
sVbb
p275
I3
sVbo
p276
I1
sVbi
p277
I1
sVby
p278
I11
sVon
p279
I85
sVom
p280
I4
sVol
p281
I2
sVok
p282
I1
sVog
p283
I1
sVof
p284
I2
sVoe
p285
I4
sVod
p286
I11
sVob
p287
I2
sVds
p288
I1
sVoy
p289
I1
sVox
p290
I1
sVow
p291
I1
sVov
p292
I3
sVou
p293
I2
sVot
p294
I6
sVos
p295
I11
sVtt
p296
I14
sVop
p297
I2
sVck
p298
I27
sVtu
p299
I1
sVco
p300
I6
sVce
p301
I31
sVxe
p302
I1
sVcy
p303
I2
sVab
p304
I1
sVad
p305
I9
sVor
p306
I10
sVpy
p307
I1
sVpe
p308
I3
sVph
p309
I6
sVis
p310
I18
sVhy
p311
I4
sVht
p312
I3
sVit
p313
I4
sVSi
p314
I1
sVhn
p315
I2
sVho
p316
I1
sVha
p317
I4
sVhe
p318
I3
sVme
p319
I4
sVuy
p320
I1
sVut
p321
I2
sVmo
p322
I3
sVas
p323
I16
sVus
p324
I38
sVur
p325
I2
sVum
p326
I2
sVul
p327
I4
sVun
p328
I1
sVms
p329
I1
sVue
p330
I4
sVud
p331
I8
sVta
p332
I1
sVmy
p333
I8
sVuc
p334
I1
sVex
p335
I2
sVaa
p336
I1
sVix
p337
I2
sVac
p338
I1
sViz
p339
I1
sVve
p340
I5
sVag
p341
I2
sVTy
p342
I1
sVip
p343
I5
sVak
p344
I3
sVir
p345
I6
sVam
p346
I13
sVal
p347
I11
sVao
p348
I1
sVan
p349
I61
sVay
p350
I5
sVik
p351
I5
sVar
p352
I13
sVim
p353
I8
sVat
p354
I1
sVaw
p355
I2
sVav
p356
I2
sVia
p357
I1
sVvy
p358
I6
sVic
p359
I7
sVaz
p360
I1
sVie
p361
I72
sVid
p362
I4
sVig
p363
I3
sVni
p364
I3
sVnk
p365
I3
sVnn
p366
I9
sVno
p367
I7
sVil
p368
I8
sVdi
p369
I1
sVnd
p370
I17
sVne
p371
I34
sVng
p372
I9
sVny
p373
I13
sVnz
p374
I2
sVvo
p375
I1
sVns
p376
I6
sVnt
p377
I14
sVft
p378
I1
sVio
p379
I9
sVfy
p380
I4
sVEz
p381
I1
sVfe
p382
I4
sVff
p383
I4
sVhu
p384
I1
sVky
p385
I4
sVfo
p386
I1
sVsy
p387
I2
sVEv
p388
I1
sVin
p389
I51
sVke
p390
I14
sVss
p391
I6
sVki
p392
I3
sVst
p393
I4
sVks
p394
I1
sVsi
p395
I1
sVsh
p396
I9
sVso
p397
I1
sVsa
p398
I1
sVse
p399
I9
stp400
Rp401
sg193
I249
sg194
F1616.5
sbs(g8
S'first_2'
p402
tp403
g0
(g14
g2
Ntp404
Rp405
(dp406
g18
F0.5
sg19
I1492
sg20
g21
((dp407
VRu
p408
I14
sVRy
p409
I1
sVRe
p410
I20
sVRa
p411
I17
sVRo
p412
I33
sVRh
p413
I1
sVRi
p414
I12
sVBe
p415
I18
sVWe
p416
I9
sVBa
p417
I17
sVWa
p418
I23
sVWo
p419
I8
sVJu
p420
I10
sVBo
p421
I8
sVBi
p422
I3
sVWi
p423
I25
sVWh
p424
I3
sVBu
p425
I6
sVJo
p426
I25
sVJi
p427
I1
sVBr
p428
I23
sVJe
p429
I27
sVJa
p430
I8
sVWy
p431
I5
sVOl
p432
I4
sVOd
p433
I2
sVOc
p434
I1
sVOb
p435
I1
sVCh
p436
I28
sVOz
p437
I2
sVOt
p438
I3
sVOs
p439
I5
sVOr
p440
I5
sVAb
p441
I9
sVGu
p442
I6
sVDu
p443
I8
sVGr
p444
I9
sVGe
p445
I18
sVGa
p446
I20
sVGo
p447
I8
sVGl
p448
I3
sVGi
p449
I12
sVPr
p450
I4
sVPu
p451
I1
sVPa
p452
I22
sVPe
p453
I10
sVPh
p454
I5
sVPi
p455
I8
sVPo
p456
I1
sVPl
p457
I1
sVHy
p458
I3
sVHu
p459
I9
sVHi
p460
I9
sVHo
p461
I6
sVHa
p462
I31
sVHe
p463
I26
sVMe
p464
I17
sVMa
p465
I52
sVMo
p466
I20
sVMi
p467
I14
sVUr
p468
I3
sVMu
p469
I5
sVUl
p470
I4
sVMy
p471
I1
sVEm
p472
I5
sVEl
p473
I15
sVZo
p474
I1
sVZi
p475
I1
sVEd
p476
I10
sVEa
p477
I2
sVZa
p478
I8
sVEb
p479
I2
sVBl
p480
I1
sVEz
p481
I2
sVEu
p482
I4
sVEt
p483
I1
sVEw
p484
I2
sVEv
p485
I3
sVEp
p486
I1
sVEs
p487
I2
sVEr
p488
I6
sVNi
p489
I13
sVNo
p490
I5
sVNa
p491
I4
sVNe
p492
I14
sVAh
p493
I4
sVBj
p494
I1
sVFr
p495
I17
sVFu
p496
I1
sVLa
p497
I16
sVFa
p498
I2
sVFe
p499
I5
sVFi
p500
I3
sVFl
p501
I6
sVWr
p502
I1
sVKa
p503
I10
sVKe
p504
I18
sVKi
p505
I7
sVSp
p506
I5
sVKo
p507
I3
sVSu
p508
I3
sVSt
p509
I20
sVSk
p510
I4
sVKr
p511
I2
sVSi
p512
I15
sVEn
p513
I5
sVSo
p514
I4
sVSm
p515
I2
sVSl
p516
I2
sVSc
p517
I4
sVKy
p518
I1
sVSe
p519
I9
sVAd
p520
I9
sVXi
p521
I1
sVCo
p522
I23
sVCl
p523
I20
sVCa
p524
I13
sVXa
p525
I1
sVBy
p526
I1
sVCy
p527
I1
sVXy
p528
I1
sVZe
p529
I4
sVCr
p530
I5
sVFo
p531
I6
sVCu
p532
I1
sVLe
p533
I18
sVTy
p534
I5
sVLo
p535
I5
sVLl
p536
I2
sVTu
p537
I5
sVTr
p538
I13
sVSy
p539
I1
sVLi
p540
I8
sVTo
p541
I13
sVLu
p542
I5
sVTh
p543
I24
sVTi
p544
I10
sVSa
p545
I25
sVTe
p546
I13
sVLy
p547
I1
sVDo
p548
I14
sVXe
p549
I1
sVDi
p550
I11
sVYa
p551
I6
sVDe
p552
I21
sVAs
p553
I5
sVDa
p554
I23
sVAr
p555
I14
sVDw
p556
I4
sVTa
p557
I20
sVDr
p558
I2
sVAu
p559
I4
sVQu
p560
I10
sVAn
p561
I20
sVIn
p562
I3
sVDm
p563
I1
sVVl
p564
I2
sVAa
p565
I2
sVVa
p566
I12
sVAc
p567
I1
sVIz
p568
I1
sVVe
p569
I4
sVAg
p570
I1
sVVi
p571
I10
sVIs
p572
I6
sVIr
p573
I5
sVAm
p574
I5
sVAl
p575
I24
sVIv
p576
I2
sVAp
p577
I1
sVIk
p578
I2
sVSh
p579
I24
sVIm
p580
I1
sVAv
p581
I5
sVIa
p582
I1
sVAx
p583
I1
sVIc
p584
I1
sVAz
p585
I1
sVIg
p586
I2
stp587
Rp588
sg193
I208
sg194
F1596.0
sbs(g9
g402
tp589
g0
(g14
g2
Ntp590
Rp591
(dp592
g18
F0.5
sg19
I2508
sg20
g21
((dp593
VRu
p594
I10
sVRy
p595
I2
sVRe
p596
I16
sVRa
p597
I19
sVRo
p598
I62
sVRh
p599
I11
sVRi
p600
I11
sVBe
p601
I51
sVWe
p602
I3
sVBa
p603
I12
sVWa
p604
I4
sVBl
p605
I12
sVJu
p606
I23
sVBo
p607
I9
sVBi
p608
I9
sVWi
p609
I16
sVWh
p610
I1
sVBu
p611
I3
sVJo
p612
I56
sVWr
p613
I2
sVBr
p614
I36
sVJe
p615
I37
sVJa
p616
I37
sVWy
p617
I3
sVOo
p618
I1
sVOn
p619
I1
sVOl
p620
I5
sVOf
p621
I2
sVOd
p622
I4
sVOt
p623
I2
sVOr
p624
I9
sVOp
p625
I3
sVGw
p626
I5
sVGu
p627
I12
sVGr
p628
I17
sVGy
p629
I1
sVGe
p630
I27
sVGa
p631
I19
sVGo
p632
I3
sVGl
p633
I14
sVGi
p634
I19
sVPr
p635
I5
sVPa
p636
I22
sVPe
p637
I20
sVPh
p638
I7
sVPi
p639
I3
sVPo
p640
I1
sVHy
p641
I4
sVHu
p642
I1
sVHi
p643
I8
sVLy
p644
I15
sVHo
p645
I8
sVHa
p646
I23
sVHe
p647
I27
sVMe
p648
I49
sVMa
p649
I129
sVUt
p650
I1
sVMo
p651
I16
sVMi
p652
I38
sVUr
p653
I4
sVMu
p654
I2
sVUl
p655
I3
sVUn
p656
I1
sVMy
p657
I8
sVEm
p658
I22
sVUm
p659
I1
sVEn
p660
I5
sVEi
p661
I3
sVZi
p662
I2
sVEd
p663
I11
sVEa
p664
I2
sVZa
p665
I4
sVEb
p666
I1
sVEy
p667
I1
sVEu
p668
I6
sVEt
p669
I5
sVEv
p670
I14
sVEs
p671
I12
sVZs
p672
I1
sVNi
p673
I18
sVNo
p674
I19
sVNa
p675
I24
sVNe
p676
I15
sVNy
p677
I1
sVFr
p678
I17
sVLa
p679
I33
sVFa
p680
I22
sVFe
p681
I10
sVLo
p682
I32
sVFi
p683
I6
sVFl
p684
I13
sVJi
p685
I2
sVSy
p686
I5
sVKe
p687
I13
sVEl
p688
I43
sVKi
p689
I22
sVKo
p690
I8
sVSu
p691
I17
sVSt
p692
I15
sVKr
p693
I11
sVSi
p694
I11
sVZo
p695
I6
sVSo
p696
I8
sVSc
p697
I1
sVKy
p698
I3
sVSe
p699
I10
sVAd
p700
I22
sVCi
p701
I7
sVCh
p702
I42
sVCo
p703
I49
sVCl
p704
I33
sVCa
p705
I77
sVCe
p706
I15
sVXe
p707
I2
sVCy
p708
I8
sVXy
p709
I1
sVZe
p710
I2
sVCr
p711
I10
sVFo
p712
I1
sVLe
p713
I38
sVTy
p714
I1
sVTw
p715
I1
sVTr
p716
I12
sVKa
p717
I68
sVLi
p718
I36
sVTo
p719
I12
sVLu
p720
I15
sVTh
p721
I11
sVTi
p722
I14
sVSa
p723
I27
sVIv
p724
I2
sVTa
p725
I21
sVDo
p726
I41
sVTe
p727
I18
sVYo
p728
I4
sg163
I13
sVDe
p729
I42
sVYe
p730
I3
sVDa
p731
I44
sVAr
p732
I30
sVDy
p733
I3
sVAu
p734
I20
sVDu
p735
I4
sVDr
p736
I2
sVIl
p737
I8
sVQu
p738
I2
sVAn
p739
I49
sVIn
p740
I5
sVAy
p741
I1
sVZu
p742
I1
sVKl
p743
I2
sVVa
p744
I19
sVAb
p745
I3
sVAe
p746
I1
sVVe
p747
I9
sVAg
p748
I6
sVAi
p749
I8
sVVi
p750
I18
sVIs
p751
I6
sVIr
p752
I5
sVAm
p753
I17
sVAl
p754
I44
sVVo
p755
I2
sVAp
p756
I2
sVAs
p757
I7
sVSh
p758
I51
sVIm
p759
I1
sVAt
p760
I3
sVIo
p761
I4
sVAv
p762
I5
sVIa
p763
I1
sVEr
p764
I16
sVId
p765
I2
stp766
Rp767
sg193
I208
sg194
F2612.0
sbssS'_label_probdist'
p768
g0
(g14
g2
Ntp769
Rp770
(dp771
g18
F0.5
sg19
I4000
sg20
g21
((dp772
g8
I1492
sg9
I2508
stp773
Rp774
sg193
I2
sg194
F4001.0
sbsb.